S'gown : 1'
p0
.S'all : 1'
p0
.S'0 : 8'
p0
.S'target=\\"_blank\\">Read : 1'
p0
.S'edition.cnn.com_mobile_mobileweb_homepage : 1'
p0
.S'cooperation","thumbnail":"http://i2.cdn.turner.com/cnnnext/dam/assets/150929145850-mexico-obama-putin-2012-small-11.jpg","duration":"","description":"","layout":""},{"uri":"/2015/11/13/opinions/bergen-isis-jihadi-john/index.html","headline":"\'End : 1'
p0
.S'sleep : 1'
p0
.S'THANKS : 2'
p0
.S'controversial : 1'
p0
.S'talks : 1'
p0
.S'porn\\u003c/a : 2'
p0
.S'Festival : 1'
p0
.S'suicide : 1'
p0
.S'thumbnail":"","duration":"","description":"Sitting : 1'
p0
.S'hate","thumbnail":"http://i2.cdn.turner.com/cnnnext/dam/assets/151117094308-paris-attacks-eiffel-tower-tricolore-small-11.jpg","duration":"","description":"\\"You : 1'
p0
.S'Watch : 2'
p0
.S'communicate : 1'
p0
.S'to : 57'
p0
.S'labor","thumbnail":"http://i2.cdn.turner.com/cnnnext/dam/assets/131218125900-kim-jong-un-wave-small-11.jpg","duration":"","description":"","layout":""},{"uri":"/2015/10/08/middleeast/isis-rape-theology-soldiers-rape-women-to-make-them-muslim/index.html","headline":"ISIS : 1'
p0
.S'Modernizr.fontface,complete : 1'
p0
.S'terror : 3'
p0
.S'siblings : 1'
p0
.S'include : 2'
p0
.S'c0.0:0 : 1'
p0
.S'very : 1'
p0
.S'layout":""},{"uri":"/2015/11/17/travel/gallery/grand-canyon-trails-best-usa/index.html","headline":"Why : 1'
p0
.S'cnn : 1'
p0
.S'migrants : 1'
p0
.S'facebook : 1'
p0
.S'DY.API.actions : 1'
p0
.S'fall : 1'
p0
.S'CNN.pageTimer : 1'
p0
.S'Freedom : 1'
p0
.S'cool : 1'
p0
.S'host.search(/^([\\w\\-]+\\.)*(www|us|edition|next)\\.cnn\\.com : 1'
p0
.S'school : 1'
p0
.S'frisson : 1'
p0
.S'prize : 1'
p0
.S'ExtrasCNN : 3'
p0
.S'list : 1'
p0
.S'joined : 1'
p0
.S'leader : 1'
p0
.S'try : 1'
p0
.S'this : 5'
p0
.S'Inc : 1'
p0
.S'joke : 1'
p0
.S'red : 2'
p0
.S'Rights : 1'
p0
.S'Paul : 1'
p0
.S'Tai : 2'
p0
.S'u003c/strong>Pregnant : 1'
p0
.S'Turkey : 1'
p0
.S'Screw : 2'
p0
.S'cookies : 2'
p0
.S"height='234 : 1"
p0
.S'says : 2'
p0
.S'villa : 1'
p0
.S'be : 4'
p0
.S'thumbnail":"http://i2.cdn.turner.com/cnnnext/dam/assets/150114140716-01-charlie-hebdo-cover-0114-small-11.jpg","duration":"","description":"The : 1'
p0
.S'refugee : 1'
p0
.S'with","countdownText":"Preview : 2'
p0
.S'Should : 1'
p0
.S'class=\\"troubleshooting-link : 2'
p0
.S'Monteiro : 1'
p0
.S"registryFile.split('_')[0 : 1"
p0
.S'sf_startpt=(new : 1'
p0
.S'air : 1'
p0
.S'LeadershipInternational : 1'
p0
.S'Paris.","layout":"","iconType":"video"},{"uri":"/videos/world/2015/11/16/paris-attacks-relighting-the-candles-orig-sdg.cnn","headline":"Relighting : 1'
p0
.S'blue : 2'
p0
.S'aim : 1'
p0
.S'what : 2'
p0
.S'Korea : 1'
p0
.S'appear : 2'
p0
.S'layout":""},{"uri":"/2015/11/13/tech/pioneers-women-scientists/index.html","headline":"Women : 1'
p0
.S'anthem : 1'
p0
.S'section : 1'
p0
.S'WorldCNN : 1'
p0
.S'Wennman : 1'
p0
.S'access : 2'
p0
.S'This : 1'
p0
.S'preferenceConfirmSearchNewsWorldSportTechnologyEntertainmentStyleTravelMoneyRegionsU.S.ChinaAsiaMiddle : 1'
p0
.S'version : 1'
p0
.S'goes : 1'
p0
.S'timeline : 1'
p0
.S'international : 1'
p0
.S'good-old : 1'
p0
.S'public : 1'
p0
.S"navigator.appVersion.indexOf('WP7 : 1"
p0
.S'junk : 1'
p0
.S'TwitterCNN : 1'
p0
.S'function(){(DY.API.actions : 1'
p0
.S'preferenceConfirm&copy : 1'
p0
.S'Charlie : 3'
p0
.S'intl_homepage1-zone-1","intl_homepage1-zone-2","intl_homepage1-zone-3","intl_homepage1-zone-4","intl_homepage2-zone-1","intl_homepage3-zone-1","intl_homepage3-zone-3","intl_homepage3-zone-4 : 1'
p0
.S'men : 1'
p0
.S'win[edition].adTargets : 1'
p0
.S'Profiles : 3'
p0
.S'hundreds : 2'
p0
.S'Greek : 2'
p0
.S'jade : 2'
p0
.S'sing : 1'
p0
.S'refugeesDEFIANCE : 1'
p0
.S'UTC","expirationPeriod":2592000000,"oldCookieName":"none","oldCookieExpiration":"Tue : 1'
p0
.S'chant","thumbnail":"http://i2.cdn.turner.com/cnnnext/dam/assets/151117161552-la-marseillaise-2-small-11.jpg","duration":"","description":"When : 1'
p0
.S'bomber","thumbnail":"http://i2.cdn.turner.com/cnnnext/dam/assets/151116133943-adel-termos-mourners-beirut-bombings-small-11.jpg","duration":"","description":"","layout":""},{"uri":"/2015/11/17/europe/greece-migrants-boat-sinks/index.html","headline : 1'
p0
.S'porn : 4'
p0
.S'LeadershipCNN : 1'
p0
.S'target=\\"_blank\\">something : 1'
p0
.S'kids : 1'
p0
.S'Tuesday : 2'
p0
.S'changed : 1'
p0
.S'Google+CNN : 1'
p0
.S'experience : 1'
p0
.S'attacks","layout":""},{"uri":"/2015/11/17/health/charlie-sheen-health/index.html","headline":"Sheen : 1'
p0
.S'women : 1'
p0
.S'masterpiece : 1'
p0
.S"cnni_homepage'));try : 1"
p0
.S'Show.\\"","layout":"","iconType":"video"},{"uri":"/videos/world/2015/11/16/france-paris-attack-memorial-nat-pkg.cnn","headline":"French : 1'
p0
.S'0){t._ym="";var : 1'
p0
.S'href=\\"https://theconversation.com/struggle-street-is-poverty-porn-with-an-extra-dose-of-class-racism-41346 : 1'
p0
.S'bike : 1'
p0
.S"396]);_vrq.push(['automate : 1"
p0
.S'love : 1'
p0
.S'hiking : 1'
p0
.S'Privacy : 1'
p0
.S'win : 1'
p0
.S'time","thumbnail":"http://i2.cdn.turner.com/cnnnext/dam/assets/151023110127-bond-cars-spectre-small-11.jpg","duration":"","description":"","layout":""},{"uri":"/2015/11/05/opinions/bergen-isis-on-a-roll/index.html","headline":"Why : 1'
p0
.S'http://z.cdn.turner.com/ads/cnni/cnni_homepage.js : 1'
p0
.S'Trump : 1'
p0
.S'brought : 1'
p0
.S'href : 1'
p0
.S'attacks.","layout":"","iconType":"video"},{"uri":"/videos/tv/2015/11/16/paris-terror-attacks-tic-toc-mobile-orig.cnn","headline":"Paris : 1'
p0
.S'UsePrivacy : 1'
p0
.S'2015","thumbnail":"http://i2.cdn.turner.com/cnnnext/dam/assets/141224103144-attractions-2015-funtasy-island-small-11.jpg","duration":"","description":"","layout":"","iconType":"gallery"},{"uri":"/2015/11/09/world/gallery/climate-change-4-degrees/index.html","headline":"What : 1'
p0
.S'Kos : 1'
p0
.S'crisis : 1'
p0
.S'transplant : 2'
p0
.S'Europe : 3'
p0
.S'plot : 1'
p0
.S'use : 4'
p0
.S'from : 11'
p0
.S'Explorer : 1'
p0
.S'would : 1'
p0
.S'trips : 1'
p0
.S'browse : 1'
p0
.S'hospital : 2'
p0
.S'visit : 1'
p0
.S'two : 1'
p0
.S'Russia : 2'
p0
.S'fortune : 1'
p0
.S'camera : 2'
p0
.S'call : 1'
p0
.S'Newsource(function : 1'
p0
.S'raids : 1'
p0
.S'vehicle : 1'
p0
.S'films : 1'
p0
.S'themselves : 1'
p0
.S'preview : 2'
p0
.S'type : 1'
p0
.S'until : 1'
p0
.S'more : 3'
p0
.S'UTC"},"height":{"small":140,"medium":120,"large":130}},{"id":"tos","headerText":"Our : 1'
p0
.S'diamond : 1'
p0
.S'knows : 1'
p0
.S'Parisian : 1'
p0
.S'rarest : 4'
p0
.S'occurred : 2'
p0
.S'layout":""},{"uri":"/2015/11/14/world/paris-attack-victims/index.html","headline":"\\u003cstrong>VICTIMS\\u003c/strong : 1'
p0
.S'clue : 2'
p0
.S'visual : 2'
p0
.S'carrying : 1'
p0
.S'everywhere : 1'
p0
.S'riding : 1'
p0
.S'known : 1'
p0
.S'November : 1'
p0
.S'subscription : 2'
p0
.S'me : 3'
p0
.S'weighed : 1'
p0
.S'c14.5:1080";CNN.CNNXStreamUrl : 1'
p0
.S'solved?","thumbnail":"http://i2.cdn.turner.com/cnnnext/dam/assets/151117130958-einstein-equation-small-11.jpg","duration":"","description":"A : 1'
p0
.S'trails.","layout":"","iconType":"gallery"},{"uri":"/2015/11/17/arts/photographer-fabrice-monteiro-the-prophecy/index.html","headline":"Photographer : 1'
p0
.S'layout":""},{"uri":"/2015/11/17/opinions/controlled-medicines-access-gcdp/index.html","headline":"\'War : 1'
p0
.S'German : 2'
p0
.S'decay : 1'
p0
.S'created : 1'
p0
.S'Taiwanese : 1'
p0
.S'host.search(/^([\\w\\-]+\\.)*facebook\\.com : 1'
p0
.S'NewsWorldSportTechnologyEntertainmentStyleTravelMoneyRegionsU.S.ChinaAsiaMiddle : 1'
p0
.S"strict';$html.className : 1"
p0
.S'remain : 1'
p0
.S'anywhere : 2'
p0
.S'Video : 1'
p0
.S'CNN.com : 1'
p0
.S'x);})(document : 1'
p0
.S'of : 57'
p0
.S'growing : 1'
p0
.S'my : 1'
p0
.S'Your : 1'
p0
.S'story:"}};CNN.ToggleOutbrain : 1'
p0
.S'Vietnamese : 1'
p0
.S'u003cimg : 1'
p0
.S'household : 1'
p0
.S"http://a.visualrevenue.com/vrs.js';x.parentNode.insertBefore(s : 1"
p0
.S'share : 1'
p0
.S'CNN.contentModel : 1'
p0
.S'worried?","thumbnail":"http://i2.cdn.turner.com/cnnnext/dam/assets/150810185852-perseid-meteor-shower-orig-mg-00003606-small-11.jpg","duration":"","description":"According : 1'
p0
.S'pieces : 2'
p0
.S'Damon : 1'
p0
.S'woman : 3'
p0
.S'want : 1'
p0
.S'Policy : 1'
p0
.S'api":{"loaderBaseURLFULLPATH":"http://www.cnn.com/.element/widget/video/videoapi/api/","loaderBaseURL":"/.element/widget/video/videoapi/api/","loaderBaseURLLocal":"http://localhost.cnn.com:3000/build/api/","version":"latest"},"collection":{"playNextVideoTimeout":1500},"goFreePreview":{"adobeEnvironment":"prod","aspenContext":"prev10","endSlate":{"ctaText":"Sign : 1'
p0
.S'Kenya : 1'
p0
.S'U.S : 1'
p0
.S'Terms : 1'
p0
.S'HIV : 1'
p0
.S'UTC","oldCookieName":"tosAgreed","oldCookieExpiration":"Tue : 1'
p0
.S'c12.5:920 : 1'
p0
.S'watching : 2'
p0
.S'magazine : 1'
p0
.S'haunts : 1'
p0
.S'passage","thumbnail":"http://i2.cdn.turner.com/cnnnext/dam/assets/151112111051-refugees-turkey-november-small-11.jpg","duration":"01:56","description":"CNN\'s : 1'
p0
.S'1 : 3'
p0
.S'converterService":"/common/modules/iframe/currencyConverter.asp","lookupService":"/services/cnndotcom/lookup.asp","serviceHost":"http://markets.money.cnn.com"};CNN.MetaRefreshRate : 1'
p0
.S"family's : 1"
p0
.S'rape : 1'
p0
.S'env : 1'
p0
.S'branch?","thumbnail":"http://i2.cdn.turner.com/cnnnext/dam/assets/151117121339-mcdonalds-hangzhou-card-small-11.jpg","duration":"","description":"An : 1'
p0
.S'interview : 1'
p0
.S'layout":"","iconType":"gallery"},{"uri":"/2015/11/16/opinions/oliker-russia-us-relations-isis/index.html","headline":"Paris : 1'
p0
.S'Prophecy : 1'
p0
.S'if : 5'
p0
.S'creature : 1'
p0
.S'designer : 2'
p0
.S'inherent : 1'
p0
.S'after : 7'
p0
.S'Espa\xc3\xb1olCNN : 1'
p0
.S'ISIS-controlled : 1'
p0
.S'specials.","titleText":"Your : 2'
p0
.S'enableGalleryAds : 1'
p0
.S'pageType : 1'
p0
.S'core : 2'
p0
.S'seediness : 1'
p0
.S'true,enableWeather : 1'
p0
.S'solidarity : 1'
p0
.S'a : 30'
p0
.S'visitors : 1'
p0
.S"ua.indexOf('iphone : 1"
p0
.S'morphine : 1'
p0
.S'sectionName : 1'
p0
.S'layout":""},{"uri":"/2015/11/17/sport/paris-attacks-french-national-anthem-football-wembley/index.html","headline":"England : 1'
p0
.S'candles : 2'
p0
.S'u003ca : 17'
p0
.S'false;},timeStamp : 1'
p0
.S'yielding : 1'
p0
.S'anytime : 2'
p0
.S'usWork : 1'
p0
.S'tale : 2'
p0
.S'Weather : 1'
p0
.S'green : 1'
p0
.S'ultimate : 1'
p0
.S"cnn_mobile_web_linktag2'};CNN.AirportDelaysConfig : 1"
p0
.S'media : 1'
p0
.S'necklace : 2'
p0
.S'ingredients : 1'
p0
.S'true,enableVideoPinning : 1'
p0
.S'enableAdLock : 1'
p0
.S'landmarks : 1'
p0
.S'talk : 1'
p0
.S'fiveAT : 1'
p0
.S'Mississippi : 1'
p0
.S'six : 1'
p0
.S'world","thumbnail":"http://i2.cdn.turner.com/cnnnext/dam/assets/151116173628-shocking-ads-tease-benetton-small-11.jpeg","duration":"","description":"","layout":""},{"uri":"/2015/11/08/world/cnnphotos-syrian-children-refugees-sleeping/index.html","headline":"Child : 1'
p0
.S'feedback : 1'
p0
.S'producer : 1'
p0
.S"ua.indexOf('ipad : 1"
p0
.S'move : 1'
p0
.S'EditionU.S.InternationalArabicEspa\xc3\xb1olSet : 2'
p0
.S'years : 1'
p0
.S'Jan : 2'
p0
.S'ended : 1'
p0
.S"won't : 4"
p0
.S'defiant : 4'
p0
.S'one-child : 1'
p0
.S'strength : 1'
p0
.S"1').toLowerCase();win[edition : 1"
p0
.S'its : 3'
p0
.S'Sheen : 2'
p0
.S'before : 1'
p0
.S'perfect : 1'
p0
.S'true,enableVisualRevenueVideo : 1'
p0
.S'Think : 3'
p0
.S'police : 2'
p0
.S'href=\\"http://foodporndaily.com : 1'
p0
.S'no-rail : 1'
p0
.S'personal : 1'
p0
.S'Kournikova : 1'
p0
.S'death","thumbnail":"http://i2.cdn.turner.com/cnnnext/dam/assets/150915104427-japan-yakuza-crime-boss-small-11.jpg","duration":"","description":"A : 1'
p0
.S'window[edition].adTargets : 1'
p0
.S'Here : 1'
p0
.S'breakingNews":{"ttl":120000,"url":"http://data.cnn.com/jsonp/breaking_news/international.json"}};CNN.GoFreePreviewConfig : 1'
p0
.S'detected : 1'
p0
.S'degrees : 1'
p0
.S'terror","thumbnail":"http://i2.cdn.turner.com/cnnnext/dam/assets/150806193341-calais-migrants-small-11.jpg","duration":"","description":"","layout":""},{"uri":"/2015/11/13/opinions/kennedy-syria-vietnam/index.html","headline":"Syria : 1'
p0
.S'Arwa : 1'
p0
.S'2015 : 3'
p0
.S'World : 3'
p0
.S'might : 1'
p0
.S'puzzle : 1'
p0
.S'spleen.","layout":""},{"uri":"/2015/10/12/architecture/what-ruin-porn-tells-us-about-ruins-and-porn/index.html","headline":"What : 1'
p0
.S'them : 2'
p0
.S'good : 1'
p0
.S'return : 6'
p0
.S'getAirportData":"/airport/status","serviceHost":"http://services.faa.gov"};CNN.BannerBreakpoints : 1'
p0
.S'willNew : 1'
p0
.S'largest : 6'
p0
.S'interval":20,"isVisible":true,"pageType":"section","resetDelay":3,"resetThreshold":17,"sectionName":"intl_homepage"};Breaking : 1'
p0
.S"you've : 1"
p0
.S'they : 6'
p0
.S'compound : 1'
p0
.S'not : 4'
p0
.S'leopards : 1'
p0
.S'now : 2'
p0
.S'bank : 1'
p0
.S'mystery : 1'
p0
.S'pregnant","thumbnail":"http://i2.cdn.turner.com/cnnnext/dam/assets/151113161500-baby-abdinoor-mohamad-abdi-held-by-his-grandmother-halima-somo-dima-small-11.jpg","duration":"","description":"The : 1'
p0
.S'before","thumbnail":"http://i2.cdn.turner.com/cnnnext/dam/assets/151013141121-dronestagram-christ-the-redeemer-small-11.jpg","duration":"","description":"","layout":""},{"uri":"/2015/11/16/opinions/waldman-paris-trump-iowa-voters/index.html","headline":"Is : 1'
p0
.S'Terrorists : 1'
p0
.S'overnight.","layout":"","iconType":"video"},{"uri":"/videos/world/2015/11/12/migrants-journey-to-europe-damon-orig-sdg.cnn","headline":"Refugees : 1'
p0
.S'rocks : 1'
p0
.S'8766314,API : 1'
p0
.S'Turner : 1'
p0
.S'String||void : 1'
p0
.S'die : 2'
p0
.S'debug : 1'
p0
.S'found : 1'
p0
.S'went : 1'
p0
.S'target=\\"_blank\\">Chow : 2'
p0
.S'en : 2'
p0
.S'Network : 1'
p0
.S'false,galleryAdClicks : 1'
p0
.S'series : 1'
p0
.S'in-your-face : 1'
p0
.S'true,enableVideoEndSlate : 1'
p0
.S'class=\\"js-truste__modal\\">Cookie : 1'
p0
.S'absurdly : 2'
p0
.S'CNN.Utils.exists(CNN.contentModel.analytics.cap_topics : 1'
p0
.S"Bond's : 1"
p0
.S'our : 2'
p0
.S'Burnett.\\u003c/a>","layout":"","iconType":"video"},{"uri":"/videos/entertainment/2015/11/17/charlie-sheen-hiv-positive-today-show-mss-orig.cnn","headline":"Charlie : 1'
p0
.S'apiEndpoint":"http://mailcar.cnn.com/api/v1 : 1'
p0
.S'out : 4'
p0
.S'children","thumbnail":"http://i2.cdn.turner.com/cnnnext/dam/assets/151023181156-01-cnnphotos-syrian-children-tease-small-11.jpg","duration":"","description":"","layout":""},{"uri":"/2015/10/26/autos/coolest-007-bond-cars-of-all-time/index.html","headline":"The : 1'
p0
.S'attacks.","layout":"","iconType":"video"},{"uri":"/2015/11/16/world/paris-attacks-syrian-refugees-backlash/index.html","headline":"\\u003cstrong>NO : 1'
p0
.S'solved : 1'
p0
.S'escape","thumbnail":"http://i2.cdn.turner.com/cnnnext/dam/assets/151116204555-paris-attacks-woman-hanging-from-window-ledge-cooper-dnt-ac-00002405-small-11.jpg","duration":"02:12","description":"CNN\'s : 1'
p0
.S'journalistsThreat : 1'
p0
.S'fault\'","thumbnail":"http://i2.cdn.turner.com/cnnnext/dam/assets/131130213718-paul-walker-small-11.jpg","duration":"","description":"Porsche : 1'
p0
.S'thrill : 1'
p0
.S'hateVICTIMS : 1'
p0
.S'target=\\"_blank\\">Jessica : 1'
p0
.S'WorldwideFeaturesTravelAll : 2'
p0
.S'refugees","thumbnail":"http://i2.cdn.turner.com/cnnnext/dam/assets/151117150226-greece-macedonia-refugee-tease-small-11.jpg","duration":"","description":"","layout":""},{"uri":"/2015/11/16/europe/husband-facebook-post-paris-attacks/index.html","headline":"\\u003cstrong>DEFIANCE\\u003c/strong : 1'
p0
.S'spas","thumbnail":"http://i2.cdn.turner.com/cnnnext/dam/assets/151013174525-snake-spa-small-11.jpg","duration":"","description":"","layout":""},{"uri":"/2015/11/17/africa/riemann-hypothesis-unsolved/index.html","headline":"Has : 1'
p0
.S'7 : 1'
p0
.S"now's : 1"
p0
.S'parks : 1'
p0
.S'CNN.comvar : 1'
p0
.S'math : 1'
p0
.S'shows : 2'
p0
.S'26-year-old : 1'
p0
.S'layout":""},{"uri":"/2015/11/17/middleeast/russian-metrojet-crash-bomb/index.html","headline":"Passenger : 1'
p0
.S'tragedy","thumbnail":"http://i2.cdn.turner.com/cnnnext/dam/assets/151116023622-france-paris-attack-memorial-nat-pkg-00014106-small-11.jpg","duration":"01:45","description":"French : 1'
p0
.S'turning : 1'
p0
.S'housed : 1'
p0
.S'Pregnant : 1'
p0
.S'true,enableBreakingNews : 1'
p0
.S'cars : 2'
p0
.S'million : 1'
p0
.S'expired"},"errorSlate":{"defaultText":"An : 2'
p0
.S'Walker : 1'
p0
.S'href=\\"//www.cnn.com/help/cnngo-troubleshooting.html : 2'
p0
.S'So : 1'
p0
.S'device.","dismissCookie":{"name":"NotifiedIE8Support","value":true,"expiration":"Tue : 1'
p0
.S'Architecture : 1'
p0
.S'1800;CNN.OptimizelyConfig : 1'
p0
.S'beginning : 1'
p0
.S'overturns","thumbnail":"http://i2.cdn.turner.com/cnnnext/dam/assets/150911094840-04-lesbos-greece-migrants-small-11.jpg","duration":"","description":"Eight : 1'
p0
.S'buildings?","layout":""},{"uri":"/2015/09/03/luxury/gallery/11000-diamonds-wallace-chan/index.html","headline":"World\'s : 1'
p0
.S'reflect : 1'
p0
.S'jet : 2'
p0
.S'recovering : 1'
p0
.S'teachers : 2'
p0
.S'ruins : 1'
p0
.S'could : 1'
p0
.S'persists : 2'
p0
.S'times : 1'
p0
.S'icecaps","thumbnail":"http://i2.cdn.turner.com/cnnnext/dam/assets/151113133013-yoro-ice-tease-1-small-11.jpg","duration":"","description":"","layout":"","iconType":"gallery"},{"uri":"/2015/11/09/sport/anna-kournikova-tennis-sport-marketing-sponsorship/index.html","headline":"How : 1'
p0
.S'turn : 1'
p0
.S'conducted : 1'
p0
.S'place : 2'
p0
.S'rainforest : 1'
p0
.S'routes : 1'
p0
.S'1million : 1'
p0
.S'href=\\"http://www.chowtaifook.com/en : 2'
p0
.S'adobeEnvironment":"prod","aspenContext":"prev10","endSlate":{"ctaText":"Sign : 1'
p0
.S'first : 1'
p0
.S'U.S.-Russia : 1'
p0
.S'there : 1'
p0
.S'Cooper : 2'
p0
.S'blown : 2'
p0
.S'feel : 1'
p0
.S'Please : 3'
p0
.S'one : 6'
p0
.S'c11.5:840 : 1'
p0
.S'scsec : 1'
p0
.S'thumbnail":"http://i2.cdn.turner.com/cnnnext/dam/assets/150904103055-wallace-chan-tease-2-small-11.jpg","duration":"","description":"The : 1'
p0
.S'false;}}}CNN.AdsConfig : 1'
p0
.S'Syria : 4'
p0
.S'affiliate":{"src":"http://i.cdn.travel.cnn.com/sites/all/libraries/affiliate-linker/cnntravel.affiliate-linker.js"},"partnerHotels":{"apiKey":"E6E67BB01FD2467688ED25D5F5BC095A","apiBaseUrl":"http://api.tripadvisor.com/api/partner/2.0/location/","servicePath":"/services/travel/partnerHotels/"},"widget":{"apiKey":"E6E67BB01FD2467688ED25D5F5BC095A","src":"http://i.cdn.travel.cnn.com/sites/all/libraries/cnntravel/cnntravel.maps.js","map":{"api":"Mapbox","apiKey":"pk.eyJ1IjoiY25uZGlnaXRhbCIsImEiOiJhMmI0NTFkNWMzNmMyODU4NTQyMjQzNWFkM2I5OGFkMCJ9.S01hv9vVgIbHvy1QuAsoyQ","optionsKey":"mapbox_access_token"}}};CNN.UserMessageConfig : 1'
p0
.S'comic : 1'
p0
.S'bullied : 1'
p0
.S'thumbnail":"http://i2.cdn.turner.com/cnnnext/dam/assets/151106191800-02-rita-levi-montalcini-restricted-small-11.jpg","duration":"","description":"","layout":""},{"uri":"/2015/11/08/world/cnnphotos-syrian-children-refugees-sleeping/index.html","headline":"Terror : 1'
p0
.S'millions : 1'
p0
.S'city : 2'
p0
.S'thumbnail":"http://i2.cdn.turner.com/cnnnext/dam/assets/151116161349-face-transplant-01-small-11.jpeg","duration":"01:49","description":"41-year-old : 1'
p0
.S'kid","thumbnail":"http://i2.cdn.turner.com/cnnnext/dam/assets/151029175652-steven-jiang-family-photo-small-11.jpg","duration":"","description":"","layout":""},{"uri":"/2015/11/06/architecture/waf-world-architecture-festival-2015/index.html","headline":"And : 1'
p0
.S'temperature : 1'
p0
.S'service : 2'
p0
.S'class=\\"m-truste__icon : 1'
p0
.S'caught : 2'
p0
.S'Changed","messageText":"By : 1'
p0
.S"McDonald's : 1"
p0
.S'least : 1'
p0
.S'plastic : 2'
p0
.S'intl_homepage : 1'
p0
.S'attack : 1'
p0
.S'Policy\\u003c/a : 1'
p0
.S'tragic : 1'
p0
.S'terrifying : 1'
p0
.S"width='416 : 1"
p0
.S'show : 1'
p0
.S'white : 2'
p0
.S'2016","thumbnail":"http://i2.cdn.turner.com/cnnnext/dam/assets/151112112741-kenya1-credit-ak-small-11.jpg","duration":"","description":"","layout":""},{"uri":"/2015/11/15/travel/detox-spas/index.html","headline":"9 : 1'
p0
.S'more\\u003c/a : 1'
p0
.S'2115 : 2'
p0
.S'preferences\\u003c/a : 1'
p0
.S'inner : 1'
p0
.S'seduced : 1'
p0
.S'HIV-positive\'","thumbnail":"http://i2.cdn.turner.com/cnnnext/dam/assets/151116183619-16-charlie-sheen-through-the-years-small-11.jpg","duration":"01:26","description":"Actor : 1'
p0
.S's--t : 1'
p0
.S'that : 10'
p0
.S'thumbnail":"http://i2.cdn.turner.com/cnnnext/dam/assets/151116140300-01-kids-and-tragedy-small-11.jpg","duration":"","description":"","layout":""},{"uri":"/2015/11/13/arts/gallery/sean-yoro-glacier-mural/index.html","headline":"Faces : 1'
p0
.S'relative : 2'
p0
.S'ads : 1'
p0
.S'zoneIds : 1'
p0
.S'Magnus : 1'
p0
.S'Provider","messageText":"Keep : 2'
p0
.S'too : 1'
p0
.S'positive","thumbnail":"","duration":"","description":"","layout":""},{"uri":"/2015/11/17/world/ireland-same-sex-marriage/index.html","headline":"Groundbreaking : 1'
p0
.S'VideosShowsCNN : 2'
p0
.S'true};CNN.Feeds : 1'
p0
.S"here's : 1"
p0
.S'nation","thumbnail":"http://i2.cdn.turner.com/cnnnext/dam/assets/151022033803-huang-tanghong-closeup-small-11.jpg","duration":"","description":"Liu : 1'
p0
.S'journalists","thumbnail":"http://i2.cdn.turner.com/cnnnext/dam/assets/151114165421-paris-woman-crying-nov-14-small-11.jpg","duration":"","description":"They : 1'
p0
.S'13 : 1'
p0
.S'Iraq : 1'
p0
.S'ever","thumbnail":"http://i2.cdn.turner.com/cnnnext/dam/assets/151116113726-face-transplant-split-hardison-small-11.jpg","duration":"","description":"","layout":""},{"uri":"/2015/11/13/travel/luxury-travel-2016/index.html","headline":"10 : 1'
p0
.S'plot","thumbnail":"http://i2.cdn.turner.com/cnnnext/dam/assets/151117030606-paris-security-2-small-11.jpg","duration":"","description":"Peter : 1'
p0
.S'Sep : 2'
p0
.S'structures : 1'
p0
.S'crosses : 1'
p0
.S'layout":""},{"uri":"/2015/11/17/opinions/bergen-explosives-paris-attacks/index.html","headline":"Why : 1'
p0
.S'Anderson : 2'
p0
.S'bed : 1'
p0
.S'nations : 1'
p0
.S'large.","layout":""},{"uri":"/videos/world/2015/11/16/paris-attacks-woman-hanging-from-window-ledge-cooper-dnt-ac.cnn","headline":"\\u003cstrong>SURVIVOR : 1'
p0
.S'Canyon : 1'
p0
.S'future : 2'
p0
.S'html.className.replace(/\\bfontface\\b : 1'
p0
.S'were : 1'
p0
.S'visited : 1'
p0
.S'Click : 2'
p0
.S'browser : 2'
p0
.S'and : 33'
p0
.S'failing : 1'
p0
.S'attackers : 1'
p0
.S'relight : 1'
p0
.S'smokes : 1'
p0
.S'layout":"","iconType":"video"},{"uri":"/videos/tv/2015/11/17/mostefai-paris-attacker-relative-erin-sot-erin.cnn","headline":"Attacker\'s : 1'
p0
.S'partnership : 2'
p0
.S'Japanese : 1'
p0
.S'say : 2'
p0
.S'bathed : 1'
p0
.S'have : 4'
p0
.S'DY : 1'
p0
.S'seen : 1'
p0
.S'Service\\u003c/a>.","dismissCookie":{"name":"CNNtosAgreed","value":true,"expiration":"Tue : 1'
p0
.S'linked : 1'
p0
.S'forced : 2'
p0
.S'label":"small","minWidth":0},{"label":"large","minWidth":768 : 1'
p0
.S'Batman : 2'
p0
.S'Fardowsa : 1'
p0
.S'snow : 1'
p0
.S'shocked : 1'
p0
.S'windowNO : 1'
p0
.S'without : 1'
p0
.S'take : 2'
p0
.S'forces : 1'
p0
.S'Patrick : 1'
p0
.S'so : 1'
p0
.S'many : 1'
p0
.S'relief : 1'
p0
.S'host.search(/^([\\w\\-]+\\.)*google\\.\\w{2,3}(\\.\\w\\w : 1'
p0
.S'such : 1'
p0
.S'true,enableUserMessage : 1'
p0
.S'multiple : 1'
p0
.S'Greece : 1'
p0
.S'collaboration : 2'
p0
.S'expires : 2'
p0
.S'threshold:1200,disableHoverThreshold:1};CNN.BylineImages : 1'
p0
.S'MexicoCNN : 1'
p0
.S'1960s : 1'
p0
.S'depths : 1'
p0
.S'most : 4'
p0
.S'said : 1'
p0
.S'plan : 1'
p0
.S'The : 7'
p0
.S'model : 1'
p0
.S'explosives : 2'
p0
.S'Bond : 2'
p0
.S'cars","thumbnail":"http://i2.cdn.turner.com/cnnnext/dam/assets/151109134312-20-batmobile-restricted-small-11.jpg","duration":"","description":"Kapow : 1'
p0
.S'true,enableAspenForCVP : 1'
p0
.S'id":"ie8","headerText":"Internet : 1'
p0
.S'once-in-a-lifetime : 1'
p0
.S'mobile : 1'
p0
.S'doc : 1'
p0
.S'professor : 1'
p0
.S'cover : 3'
p0
.S'true,enableAspenForTOS : 1'
p0
.S'push(arguments : 1'
p0
.S'face : 3'
p0
.S'which : 2'
p0
.S'Provider.","troubleShootingText":"If : 2'
p0
.S'experts.","layout":""},{"uri":"/2015/11/12/travel/dronestagram-drone-photography-photo-art-social/index.html","headline":"Drone : 1'
p0
.S'refresh.","subscriptionErrorText":"Your : 2'
p0
.S'Take : 1'
p0
.S"cnn.com';if : 1"
p0
.S'son : 3'
p0
.S'saying : 1'
p0
.S'emerging : 1'
p0
.S'bomb : 2'
p0
.S'to\\u003cbr/>all : 2'
p0
.S'Paris : 9'
p0
.S'Agency : 1'
p0
.S'LARGE\\u003c/strong : 1'
p0
.S'will","thumbnail":"http://i2.cdn.turner.com/cnnnext/dam/assets/151116132311-01-abdelhamid-abaaoud-small-11.jpg","duration":"","description":"","layout":""},{"uri":"/2015/11/17/world/charlie-hebdo-new-cover/index.html","headline":"New : 1'
p0
.S'Doulsy.","layout":""},{"uri":"/2015/11/17/travel/china-hangzhou-old-villa-mcdonalds/index.html","headline":"World\'s : 1'
p0
.S'fwNetworkId : 1'
p0
.S'soldiers : 1'
p0
.S'fear : 1'
p0
.S'European : 1'
p0
.S'current : 1'
p0
.S'NewsToggle : 1'
p0
.S'layout : 1'
p0
.S'just : 1'
p0
.S'title : 1'
p0
.S'true : 2'
p0
.S'ruin : 2'
p0
.S'Muslim : 1'
p0
.S'French : 1'
p0
.S'theme : 1'
p0
.S'false,enableOmniture : 1'
p0
.S't.co : 1'
p0
.S'photo : 1'
p0
.S'Abdi : 1'
p0
.S'8 : 2'
p0
.S'Belgian-Beninese : 1'
p0
.S'thousands : 1'
p0
.S'scientists : 1'
p0
.S'do : 2'
p0
.S'his : 5'
p0
.S'FacebookCNN : 1'
p0
.S'above : 2'
p0
.S'get : 2'
p0
.S"Walker's : 1"
p0
.S'condemning : 1'
p0
.S'de : 1'
p0
.S'stop : 1'
p0
.S'Zap : 1'
p0
.S'coast : 1'
p0
.S'next : 1'
p0
.S'amazon : 1'
p0
.S'made : 4'
p0
.S'unearthed : 2'
p0
.S"world's : 5"
p0
.S'words : 2'
p0
.S'new : 1'
p0
.S'2 : 1'
p0
.S'dismissCookie":{"name":"trusteConsent","value":true,"expiration":"","skip":true},"height":{"small":135,"medium":110,"large":130}}];CNN.VideoConfig : 1'
p0
.S'avatar":{"host":"avatar.cnn.com"},"embedscripts":{"instagramjs":"//platform.instagram.com/en_US/embeds.js","twitterjs":"//platform.twitter.com/widgets.js","livefyrejs":"//cdn.livefyre.com/Livefyre.js"},"gigya":{"appId":"3_gtUbleJNtrRITgx-1mM_ci7GcIrH8xL9W_VfAbzSa4zpFrRwnpq_eYd8QTRkr7VC","enableOnLeaf":true,"enableOnFirstZone":true,"shareStatsPostURL":"http://actionevent.cnn.com/api/v1/event/addEvent"},"livefyre":{"mobileCommentsBaseUrl":"http://cnn.bootstrap.fyre.co/api/1.1/public/comments/ncomments/","network":"cnn.fyre.co","siteId":353270,"srcDomain":"http://cdn.livefyre.com","appembed":"app-embed#0.6.6"},"msib":{"authUrl":"cnn-comments://livefyre/authentication","baseUrl":"https://audience.cnn.com/services/cnn","errorUrl":"cnn-comments://livefyre/error","loginUrl":"cnn-comments://livefyre/login"},"whatsapp":{"baseUrl":"whatsapp://send?text=CNN : 1'
p0
.S'him : 1'
p0
.S'Husband : 2'
p0
.S'pre-loaded : 1'
p0
.S'R\xc3\xa9publique : 1'
p0
.S'Because : 1'
p0
.S'true,enableOutbrainVideoKPI : 1'
p0
.S'shy : 1'
p0
.S'medicines : 1'
p0
.S'href=\\"/terms\\">Terms : 1'
p0
.S'win[edition].adTargets.refdom : 6'
p0
.S'Hardison : 1'
p0
.S"search('pg-section : 1"
p0
.S'safari":{"webServiceURL":"https://alertshub.cnn.com/distributionhub","websitePushID":"web.com.cnn.redalert"}};CNN.adTimers : 1'
p0
.S'stupid : 1'
p0
.S'dangerous : 1'
p0
.S'Senegalese : 1'
p0
.S'including : 1'
p0
.S'where : 3'
p0
.S'full16x9":1101,"large":781,"medium":461,"mini":0,"small":308,"xsmall":221};CNN.JumbotronConfig : 1'
p0
.S'refugees : 3'
p0
.S"src='http://{host}/video/api/embed.html#/video/{videoId : 1"
p0
.S'11,551 : 2'
p0
.S"international').toUpperCase(),host : 1"
p0
.S'national : 1'
p0
.S'notice : 1'
p0
.S'mechanic","layout":"","iconType":"video"},{"uri":"/2015/11/12/hotels/gallery/malaysia-rainforest-resorts/index.html","headline":"12 : 1'
p0
.S'France : 7'
p0
.S'LARGE : 1'
p0
.S'edition : 4'
p0
.S'see : 4'
p0
.S'are : 9'
p0
.S'win[edition : 1'
p0
.S'Grand : 1'
p0
.S'surgery : 1'
p0
.S'habitat","thumbnail":"http://i2.cdn.turner.com/cnnnext/dam/assets/151030122625-05-snow-leopards-small-11.jpg","duration":"","description":"","layout":"","iconType":"gallery"},{"uri":"/2015/11/10/autos/gallery/famous-movie-cars/index.html","headline":"Holy : 1'
p0
.S'best : 1'
p0
.S'articleList":[{"uri":"/2015/11/17/europe/paris-attacks-at-a-glance/index.html","headline":"\\u003cstrong>LATEST : 1'
p0
.S'01 : 4'
p0
.S'tackling : 1'
p0
.S'Fook\\u003c/a : 2'
p0
.S'movie : 1'
p0
.S'away : 1'
p0
.S"says'Ringleader : 1"
p0
.S'forecast : 1'
p0
.S'fans : 2'
p0
.S'EastAfricaEuropeAmericasVideoMust : 2'
p0
.S'spirit-like : 1'
p0
.S'between : 4'
p0
.S'it : 4'
p0
.S"name's : 1"
p0
.S'c9.5:680 : 1'
p0
.S'ruptured : 1'
p0
.S'FeaturesOpinionsiReportMore\xe2\x80\xa6PhotosWeatherCNN : 2'
p0
.S'we : 3'
p0
.S'never : 1'
p0
.S'layout":"","iconType":"gallery"},{"uri":"/2015/08/28/tech/mars-photos-alien-life/index.html","headline":"Photos : 1'
p0
.S'0===t._ym.chkPls||t._ym.chkPls()})(document,window : 1'
p0
.S'weapons","thumbnail":"http://i2.cdn.turner.com/cnnnext/dam/assets/151026173358-syria-ypg-fighters-gun-bullets-small-11.jpg","duration":"","description":"","layout : 1'
p0
.S'CNN.SocialConfig : 1'
p0
.S'boss : 2'
p0
.S'entitlementSingletons : 1'
p0
.S'usAbout : 1'
p0
.S'ShowsScheduleFaces : 2'
p0
.S'key : 2'
p0
.S'c13.5:1000 : 1'
p0
.S'CNN.contentModel.analytics.cap_topics.split(/,\\s*/);}}(window : 1'
p0
.S'companionAdStates : 1'
p0
.S'cities : 1'
p0
.S'come : 1'
p0
.S'TODAY : 1'
p0
.S'improve : 1'
p0
.S'assumptions : 1'
p0
.S'Reserved.Terms : 1'
p0
.S'depicts : 2'
p0
.S'piece : 2'
p0
.S'last : 1'
p0
.S'policy : 1'
p0
.S'money : 1'
p0
.S'country : 1'
p0
.S'region : 1'
p0
.S"he's : 1"
p0
.S'LeadershipFIGHTING : 1'
p0
.S'enableForCarousels":true,"enableForImages":true,"threshold":300};CNN.Features : 1'
p0
.S'Bergen : 1'
p0
.S'Nigerian : 1'
p0
.S's : 1'
p0
.S'js-truste__icon : 1'
p0
.S'Mosul : 1'
p0
.S'argue : 1'
p0
.S'target=\\"_blank\\">porn-porn\\u003c/a : 1'
p0
.S"can't : 2"
p0
.S'layout":""},{"uri":"/2015/11/16/fashion/adverts-that-changed-the-world/index.html","headline":"Look : 1'
p0
.S'recreational : 1'
p0
.S'lazyLoad : 1'
p0
.S'clues : 1'
p0
.S'Chan\\u003c/a : 2'
p0
.S'tons : 1'
p0
.S'unfolded : 1'
p0
.S'laugh : 1'
p0
.S'sexy : 1'
p0
.S'Proof : 1'
p0
.S'href=\\"/cookie\\">Tell : 1'
p0
.S'boat : 3'
p0
.S'Crunch : 1'
p0
.S'unusual : 1'
p0
.S'strong : 1'
p0
.S'puts : 1'
p0
.S'vrqIsOnHP : 1'
p0
.S'Students : 2'
p0
.S"it's : 1"
p0
.S'why","thumbnail":"http://i2.cdn.turner.com/cnnnext/dam/assets/140115184759-pain-relievers-05-small-11.jpg","duration":"","description":"Governments : 1'
p0
.S'Space : 1'
p0
.S'three : 1'
p0
.S'evoking : 1'
p0
.S'true;},info : 1'
p0
.S'Phone : 1'
p0
.S'Brooklyn : 1'
p0
.S'84-year-old : 1'
p0
.S'interest : 1'
p0
.S'c8.5:600 : 1'
p0
.S'dozens : 1'
p0
.S'href=\\"http://edition.cnn.com/2015/11/10/autos/famous-movie-cars-batman/index.html : 1'
p0
.S'website : 1'
p0
.S'life : 2'
p0
.S'diversity : 1'
p0
.S'die.","layout":""},{"uri":"/2015/11/15/health/face-transplant-firefighter/index.html","headline":"\'Most : 1'
p0
.S'drugs : 2'
p0
.S'am : 1'
p0
.S'designed : 2'
p0
.S'formed : 2'
p0
.S'A-ZCNN : 3'
p0
.S'else : 5'
p0
.S'photos : 2'
p0
.S'Broadcasting : 1'
p0
.S'lives : 1'
p0
.S'sleep","thumbnail":"http://i2.cdn.turner.com/cnnnext/dam/assets/151023181358-03-cnnphotos-syrian-children-tease-small-11.jpg","duration":"","description":"When : 1'
p0
.S'window.document.domain : 1'
p0
.S'usContact : 1'
p0
.S'suspected : 1'
p0
.S'true,enableAmazonDisplayAds : 1'
p0
.S'roll?","thumbnail":"http://i2.cdn.turner.com/cnnnext/dam/assets/151105103638-isis-flag-tank-small-11.jpg","duration":"","description":"","layout":""},{"uri":"/2015/10/29/asia/china-one-child-policy-personal-take/index.html","headline":"Life : 1'
p0
.S'former : 1'
p0
.S'volunteer : 1'
p0
.S'case : 1'
p0
.S"week's : 1"
p0
.S'href=\\"http://www.cnn.com/profiles/erin-burnett-profile\\">Erin : 1'
p0
.S'world","thumbnail":"http://i2.cdn.turner.com/cnnnext/dam/assets/151110094950-ak-tease-2-small-11.jpg","duration":"","description":"","layout":""},{"uri":"/2015/10/29/asia/north-korea-un-forced-labor-overseas/index.html","headline":"North : 1'
p0
.S'look : 3'
p0
.S'these : 1'
p0
.S'Intl : 1'
p0
.S'runway : 1'
p0
.S'excited : 1'
p0
.S'will : 4'
p0
.S'near : 1'
p0
.S'attacks","thumbnail":"http://i2.cdn.turner.com/cnnnext/dam/assets/151116184644-candles-place-de-la-republique-small-11.jpg","duration":"01:26","description":"On : 1'
p0
.S'lavish : 2'
p0
.S'typeof : 1'
p0
.S'married.","layout":""},{"uri":"/2015/11/16/middleeast/lebanon-adel-termos-beirut-hero/index.html","headline":"Hero : 1'
p0
.S'error : 4'
p0
.S'Hong : 2'
p0
.S'156-year-old : 2'
p0
.S'coolest : 1'
p0
.S'Vietnam?","thumbnail":"http://i2.cdn.turner.com/cnnnext/dam/assets/151106123715-01-obama-keystone-1106-small-11.jpg","duration":"","description":"","layout":""},{"uri":"/2015/11/13/opinions/space-junk-wt1190f-conversation/index.html","headline":"Space : 1'
p0
.S'bludgeoned : 2'
p0
.S'fashioned : 1'
p0
.S'is : 12'
p0
.S'src=\\"http://choices.truste.com/get?name=admarker-icon-tr.png : 1'
p0
.S'site : 2'
p0
.S'warmer","thumbnail":"http://i2.cdn.turner.com/cnnnext/dam/assets/151109134020-climate-change-4-degrees-small-11.jpg","duration":"","description":"","layout":"","iconType":"gallery"},{"uri":"/2015/09/03/luxury/gallery/11000-diamonds-wallace-chan/index.html","headline":"What : 1'
p0
.S'couples : 1'
p0
.S'c10.5:760 : 1'
p0
.S'vs : 2'
p0
.S'reports : 2'
p0
.S'Lizhu : 1'
p0
.S'in : 23'
p0
.S'claimed : 1'
p0
.S'You : 2'
p0
.S'leaving : 1'
p0
.S'false;},log : 1'
p0
.S'href=\\"https://theconversation.com/au/topics/pornography : 1'
p0
.S'memorial : 2'
p0
.S'terrorist : 2'
p0
.S'Cable : 1'
p0
.S'supported","messageText":"Thank : 1'
p0
.S'vrq : 2'
p0
.S'pay : 3'
p0
.S'make : 5'
p0
.S'2015","thumbnail":"http://i2.cdn.turner.com/cnnnext/dam/assets/151112172906-trudeau-cabinet-small-11.jpg","duration":"","description":"","layout":""},{"uri":"/2015/11/16/opinions/closing-migration-routes-wont-stop-terrorism/index.html","headline":"Migrant : 1'
p0
.S'00:00:00 : 4'
p0
.S'HeroesImpact : 1'
p0
.S'tells : 1'
p0
.S'd.getElementsByTagName(a)[0];s.async : 1'
p0
.S'England : 1'
p0
.S'html : 1'
p0
.S'thumbnail":"http://i2.cdn.turner.com/cnnnext/dam/assets/151007175713-niki-feijen-ruins-photography-3-small-11.jpg","duration":"","description":"Ah : 1'
p0
.S"document.getElementsByTagName('html')[0];Modernizr.load({test : 1"
p0
.S'9 : 1'
p0
.S'going : 1'
p0
.S'document : 1'
p0
.S'events : 1'
p0
.S'used : 1'
p0
.S'Mars?","thumbnail":"http://i2.cdn.turner.com/cnnnext/dam/assets/150828091044-mars-iguana-small-11.jpg","duration":"","description":"","layout":""},{"uri":"/2015/10/27/middleeast/inside-syria-front-line-against-isis/index.html","headline":"Men : 1'
p0
.S'centuries : 1'
p0
.S'somewhere : 1'
p0
.S'I : 3'
p0
.S'island : 1'
p0
.S'mobileSSID : 1'
p0
.S'raids","thumbnail":"http://i2.cdn.turner.com/cnnnext/dam/assets/151113163940-01-paris-shooting-screengrab-small-11.jpg","duration":"","description":"French : 1'
p0
.S'm=e.createElement("script");m.type="text/javascript",m.async=!0,m.src="//static.yieldmo.com/ym.m2.js",(e.getElementsByTagName("head")[0]||e.getElementsByTagName("body")[0]).appendChild(m)}else : 1'
p0
.S'photographers : 1'
p0
.S'visualRevenueResponse(d : 1'
p0
.S'url":"//cdn.optimizely.com/js/128727546.js"};CNN.OutbrainVideoKPISrc : 1'
p0
.S'waste : 1'
p0
.S'ISIS","thumbnail":"http://i2.cdn.turner.com/cnnnext/dam/assets/150226160941-lead-dnt-sciutto-jihadi-john-unmasked-00000000-small-11.jpg","duration":"","description":"","layout":""},{"uri":"/videos/world/2015/11/16/paris-attacks-woman-hanging-from-window-ledge-cooper-dnt-ac.cnn","headline":"Pregnant : 1'
p0
.S'haunting : 1'
p0
.S'McCafe.","layout":""},{"uri":"/2015/11/16/politics/trump-security-paris-attacks/index.html","headline":"Trump : 1'
p0
.S'blamed : 1'
p0
.S'understand : 1'
p0
.S'recent : 1'
p0
.S'Minh : 1'
p0
.S'safe : 1'
p0
.S'window","thumbnail":"http://i2.cdn.turner.com/cnnnext/dam/assets/151116204555-paris-attacks-woman-hanging-from-window-ledge-cooper-dnt-ac-00002405-small-11.jpg","duration":"02:12","description":"CNN\'s : 1'
p0
.S'undefined : 1'
p0
.S'blood : 2'
p0
.S'doc.referrer.replace(/^http(?:s)?\\:\\/\\/([\\w\\-\\.]+).*$/i : 1'
p0
.S'UTC"},"height":{"small":120,"medium":100,"large":110}},{"id":"truste","headerText":"Cookie : 1'
p0
.S'entertainment":{"zone":{"adId":"ad_rect_btf_02","outBrainId":"AR_38"}},"health":{"zone":{"adId":"ad_rect_atf_01","outBrainId":"SF_8"}},"living":{"zone":{"adId":"ad_rect_atf_01","outBrainId":"SF_9"}},"politics":{"zone":{"adId":"ad_rect_atf_01","outBrainId":"SF_6"}},"tech":{"zone":{"adId":"ad_rect_atf_01","outBrainId":"SF_7"}},"travel":{"zone":{"adId":"ad_rect_atf_01","outBrainId":"SF_10"}},"us":{"zone":{"adId":"ad_rect_atf_01","outBrainId":"SF_4"}},"world":{"zone":{"adId":"ad_rect_atf_01","outBrainId":"SF_5"}}};CNN.TripAdvisor : 1'
p0
.S'suffering : 1'
p0
.S'fighting : 1'
p0
.S'ocean : 1'
p0
.S'States : 1'
p0
.S'voters?","thumbnail":"http://i2.cdn.turner.com/cnnnext/dam/assets/151114144356-donald-trump-november-13-2015-small-11.jpg","duration":"","description":"","layout":""},{"uri":"/2015/11/16/health/talking-to-kids-tragic-events-advice-parents/index.html","headline":"How : 1'
p0
.S'desktopSSID : 1'
p0
.S'contact : 2'
p0
.S'prophecy","thumbnail":"http://i2.cdn.turner.com/cnnnext/dam/assets/151026153844-trashy-fashion-9-small-11.jpg","duration":"","description":"An : 1'
p0
.S'Have : 1'
p0
.S'retrace : 1'
p0
.S'the : 60'
p0
.S'window.console : 2'
p0
.S'Paris","thumbnail":"http://i2.cdn.turner.com/cnnnext/dam/assets/151116220345-sydney-opera-house-paris-tribute-small-11.jpg","duration":"01:12","description":"Familiar : 1'
p0
.S'Batmobile : 1'
p0
.S'summer : 1'
p0
.S'NewsPassenger : 1'
p0
.S'magical : 1'
p0
.S'Service : 5'
p0
.S'diamonds?","thumbnail":"http://i2.cdn.turner.com/cnnnext/dam/assets/150904103055-wallace-chan-tease-2-small-11.jpg","duration":"","description":"The : 1'
p0
.S'being : 1'
p0
.S'captures : 1'
p0
.S'href=\\"/2015/11/12/world/space-junk-impact-feat/index.html : 1'
p0
.S'http://go.cnn.com/?stream=";CNN.DemandLoadConfig : 1'
p0
.S'layout":"","iconType":"gallery"},{"uri":"/2015/11/10/travel/gallery/new-theme-parks-of-2015/index.html","headline":"The : 1'
p0
.S't._ym : 1'
p0
.S'CNN.eventTimers : 1'
p0
.S'arrests : 2'
p0
.S'Sunday : 1'
p0
.S'kill : 1'
p0
.S'LinksPhotosWeatherCNN : 1'
p0
.S'victim : 2'
p0
.S'using : 2'
p0
.S'true;CNN.Mailchimp : 1'
p0
.S'Closing : 1'
p0
.S'e : 2'
p0
.S'pageTop":{},"headline":"","author":"","showName":"","isArticleVideoCollection":false,"publishDate":"2015-11-17T17:11:39Z","pageBranding":"default","branding_content_page":"default","branding_content_zone":["default"],"branding_content_container":["default","defining-moments"],"branding_content_card : 1'
p0
.S'death : 2'
p0
.S'run-down : 1'
p0
.S'concertgoers : 1'
p0
.S'retailer : 2'
p0
.S'their : 2'
p0
.S'analytics : 1'
p0
.S'photographer : 2'
p0
.S'layout":""},{"uri":"/2015/11/17/asia/japan-yakuza-boss-found-dead/index.html","headline":"Yakuza : 1'
p0
.S'Fabrice : 1'
p0
.S'had : 2'
p0
.S'ISIS\'","thumbnail":"http://i2.cdn.turner.com/cnnnext/dam/assets/151112124457-01-trump-1112-small-11.jpg","duration":"","description":"","layout":""},{"uri":"/2015/11/13/africa/kenya-most-dangerous-place-to-be-pregnant/index.html","headline":"Most : 1'
p0
.S'15-year-old : 1'
p0
.S'script : 1'
p0
.S"other';}if : 1"
p0
.S'edition.cnn.com_main_homepage : 1'
p0
.S'4 : 2'
p0
.S'marriage","thumbnail":"http://i2.cdn.turner.com/cnnnext/dam/assets/150804171153-25-selfies-0805-small-11.jpg","duration":"","description":"Ireland : 1'
p0
.S'News : 4'
p0
.S'extensive : 1'
p0
.S'has : 10'
p0
.S'gang : 1'
p0
.S'By : 1'
p0
.S'true;},error : 1'
p0
.S'5-year-old : 1'
p0
.S'Building : 1'
p0
.S'instanceof : 1'
p0
.S"false;_vrq.push(['id : 1"
p0
.S'around : 2'
p0
.S'spectacular : 1'
p0
.S'loss : 1'
p0
.S'CNNgo : 2'
p0
.S'James : 1'
p0
.S'survival : 2'
p0
.S"who's : 1"
p0
.S"America's : 1"
p0
.S"Japan's : 1"
p0
.S'Friday\\u003c/a : 1'
p0
.S"no-fontface');}});}var : 1"
p0
.S'href=\\"https://instagram.com/jessicaminhanh/?hl=en : 1'
p0
.S'historic : 1'
p0
.S'jadeite : 2'
p0
.S'amp : 3'
p0
.S'feelings : 1'
p0
.S'like : 3'
p0
.S'melting : 1'
p0
.S'forgiveness","thumbnail":"http://i2.cdn.turner.com/cnnnext/dam/assets/151116132221-mourners-bataclan-minute-silence-small-11.jpg","duration":"02:53","description":"A : 1'
p0
.S'Fashion : 1'
p0
.S'OK : 2'
p0
.S'stylist : 1'
p0
.S'pounds : 2'
p0
.S'sofa : 1'
p0
.S"ua.indexOf('android : 1"
p0
.S'ISISBreaking : 1'
p0
.S'backlash : 1'
p0
.S'unstable : 1'
p0
.S'night : 2'
p0
.S'hung : 2'
p0
.S'security : 1'
p0
.S'is...","thumbnail":"http://i2.cdn.turner.com/cnnnext/dam/assets/151106142012-housing---the-interlace-by-omaburo-ole-scheeren-singapore-small-11.jpg","duration":"","description":"If : 1'
p0
.S'OS : 1'
p0
.S'page : 1'
p0
.S'mathematical : 1'
p0
.S'same-sex : 2'
p0
.S'right : 1'
p0
.S'shabby : 1'
p0
.S'Entertainment : 1'
p0
.S'reveals : 1'
p0
.S'twitter : 1'
p0
.S'back : 1'
p0
.S'dead : 1'
p0
.S'WAF).","layout":""},{"uri":"/2015/11/06/health/james-bond-spectre-accents/index.html","headline":"What\'s : 1'
p0
.S'Espa\xc3\xb1olTVTV : 2'
p0
.S'All : 1'
p0
.S'Year : 1'
p0
.S"CNN's : 1"
p0
.S'CNNgo.\\u003cbr/>Sign : 2'
p0
.S'escape : 1'
p0
.S'pain : 1'
p0
.S'PolicyAdChoicesAdvertise : 1'
p0
.S'here\\u003c/a : 1'
p0
.S'document.body.className : 1'
p0
.S'win[edition].adTargets.capTopics : 1'
p0
.S'jewelry : 4'
p0
.S'for : 12'
p0
.S'titillation : 1'
p0
.S'MobileTools : 3'
p0
.S'earning : 1'
p0
.S'function(e,t){if(t._ym===void : 1'
p0
.S'layout":"","iconType":"video"},{"uri":"/videos/health/2015/11/16/face-transplant-surgery-patient-nyu-facial-plastic-orig.cnn","headline":"Firefighter : 1'
p0
.S'does : 2'
p0
.S'provider : 2'
p0
.S'ProjectQuick : 1'
p0
.S'navigator.userAgent.toLowerCase();if : 1'
p0
.S'bleeding : 1'
p0
.S'prod : 1'
p0
.S'http://traffic.outbrain.com/network/trackpxl?advid=814&action=view";CNN.PushAlertsConfig : 1'
p0
.S'He : 1'
p0
.S'host.search(/^([\\w\\-]+\\.)*money\\.cnn\\.com : 1'
p0
.S'threshold:640};if : 1'
p0
.S'FootageCNN : 1'
p0
.S'who : 2'
p0
.S'section":{"index.html":{"enablePictureFill":false,"enableZonesScrollToLoad":false,"lazyLoad":true,"loadAllZonesLazy":false,"zones":{"minWidth":{"0":["index.html:intl_homepage1-zone-1","index.html:intl_homepage1-zone-2","intl_index3.html:intl_homepage-magellan-zone-1","intl_index3.html:intl_homepage-magellan-zone-2","intl_index3.html:intl_homepage-magellan-zone-3","intl_index3.html:intl_homepage-magellan-zone-4","index.html:intl_homepage3-zone-4"],"640":["index.html:intl_homepage1-zone-1","index.html:intl_homepage1-zone-2","index.html:intl_homepage1-zone-3","index.html:intl_homepage1-zone-4","index.html:intl_homepage2-zone-1","index.html:intl_homepage3-zone-1","index.html:intl_homepage3-zone-2","index.html:intl_homepage3-zone-3","index.html:intl_homepage3-zone-4"],"800":["index.html:intl_homepage1-zone-1","index.html:intl_homepage1-zone-2","index.html:intl_homepage1-zone-3","index.html:intl_homepage1-zone-4","index.html:intl_homepage2-zone-1","index.html:intl_homepage3-zone-1","index.html:intl_homepage3-zone-2","index.html:intl_homepage3-zone-3","index.html:intl_homepage3-zone-4"]}}},"index2.html":{"enablePictureFill":true,"enableZonesScrollToLoad":false,"lazyLoad":true,"zones":{"minWidth":{"0":["index2.html:intl_homepage1-zone-1","index2.html:intl_homepage1-zone-2","index2.html:intl_homepage1-zone-3","index2.html:intl_homepage1-zone-4","index2.html:intl_homepage2-zone-1","index2.html:intl_homepage3-zone-1","index2.html:intl_homepage3-zone-2","index2.html:intl_homepage3-zone-3","index2.html:intl_homepage3-zone-4"],"640":["index2.html:intl_homepage1-zone-1","index2.html:intl_homepage1-zone-2","index2.html:intl_homepage1-zone-3","index2.html:intl_homepage1-zone-4","index2.html:intl_homepage2-zone-1","index2.html:intl_homepage3-zone-1","index2.html:intl_homepage3-zone-2","index2.html:intl_homepage3-zone-3","index2.html:intl_homepage3-zone-4"],"800":["index2.html:intl_homepage1-zone-1","index2.html:intl_homepage1-zone-2","index2.html:intl_homepage1-zone-3","index2.html:intl_homepage1-zone-4","index2.html:intl_homepage2-zone-1","index2.html:intl_homepage3-zone-1","index2.html:intl_homepage3-zone-2","index2.html:intl_homepage3-zone-3","index2.html:intl_homepage3-zone-4"]}}}}};CNN.SiblingNavigation : 1'
p0
.S'forward.","layout":"","iconType":"video"},{"uri":"/videos/world/2015/11/16/paris-attacks-landmarks-turn-blue-white-red-orig-sdg.cnn","headline":"Landmarks : 1'
p0
.S'continuing : 1'
p0
.S'true,enableAmazonVideoAds : 1'
p0
.S'sports : 1'
p0
.S'host : 1'
p0
.S'Monday : 1'
p0
.S'Place : 1'
p0
.S'Anh\\u003c/a : 1'
p0
.S'90,000 : 1'
p0
.S'taboo : 1'
p0
.S'stay : 1'
p0
.S'registryFile : 2'
p0
.S'by : 6'
p0
.S'on : 17'
p0
.S'about : 6'
p0
.S'asks : 1'
p0
.S'world : 4'
p0
.S'getting : 1'
p0
.S'attacks : 6'
p0
.S'fwProfile : 1'
p0
.S'dollars : 1'
p0
.S'favorite : 2'
p0
.S'militants : 1'
p0
.S'Bomb : 1'
p0
.S'carries : 2'
p0
.S'journey : 3'
p0
.S'hatred : 1'
p0
.S'true,enableSafariPushAlerts : 1'
p0
.S'or : 2'
p0
.S'Swedish : 1'
p0
.S'chantWhy : 1'
p0
.S'own : 3'
p0
.S'terrorists : 3'
p0
.S'into : 1'
p0
.S"navigator.appVersion.indexOf('Windows : 1"
p0
.S'arms : 1'
p0
.S'down : 1'
p0
.S'Few : 1'
p0
.S'guard : 1'
p0
.S'google : 1'
p0
.S'promise : 1'
p0
.S'been : 4'
p0
.S'artists : 1'
p0
.S'false;},warn : 1'
p0
.S'frightened : 1'
p0
.S'your : 11'
p0
.S'd.createElement(a),x : 1'
p0
.S'ISIS : 6'
p0
.S'ArabicCNN : 1'
p0
.S'her : 4'
p0
.S'support : 2'
p0
.S'people : 3'
p0
.S'firefighter : 1'
p0
.S'transform : 1'
p0
.S'long : 1'
p0
.S'gallery : 2'
p0
.S'start : 1'
p0
.S'window : 1'
p0
.S'section":{"entertainment":{"enableFooter":false,"enableInclude":true},"health":{"enableFooter":false,"enableInclude":true},"living":{"enableFooter":false,"enableInclude":true},"politics":{"enableFooter":false,"enableInclude":true},"tech":{"enableFooter":false,"enableInclude":true},"travel":{"enableFooter":false,"enableInclude":true},"us":{"enableFooter":false,"enableInclude":true},"world":{"enableFooter":false,"enableInclude":true}}};CNN.MarketsConfig : 1'
p0
.S'says","thumbnail":"http://i2.cdn.turner.com/cnnnext/dam/assets/151103132523-02-russia-plane-crash-1103-small-11.jpg","duration":"","description":"","layout":""},{"uri":"/2015/11/16/europe/paris-terror-attack-mastermind-abdelhamid-abaaoud/index.html","headline":"\'Ringleader : 1'
p0
.S'homemade : 1'
p0
.S'var : 7'
p0
.S'sale : 1'
p0
.S'was : 11'
p0
.S'war : 2'
p0
.S'target=\\"_blank\\">food : 1'
p0
.S'function : 9'
p0
.S'target=\\"_blank\\">Wallace : 2'
p0
.S'head : 1'
p0
.S'Date()).getTime()Breaking : 1'
p0
.S'System : 1'
p0
.S'id":"ad_mod_85a882a72","scriptName":"http://z.cdn.turner.com/ads/cnni/singles/cnni_entitlement_01.js"},{"id":"ad_mod_e74dbd68d","scriptName":"http://z.cdn.turner.com/ads/cnni/singles/cnni_entitlement_02.js"},{"id":"ad_mod_596291844","scriptName":"http://z.cdn.turner.com/ads/cnni/singles/cnni_entitlement_03.js"},{"id":"ad_mod_9a979d11","scriptName":"http://z.cdn.turner.com/ads/cnni/singles/cnni_entitlement_04.js"},{"id":"ad_mod_2b3ba0432","scriptName":"http://z.cdn.turner.com/ads/cnni/singles/cnni_entitlement_05.js : 1'
p0
.S'in","persistentCtaText":"Experience"},"temppass":"TempPass_CNN10min"};CNN.ImageBreakpoints : 1'
p0
.S'heat : 1'
p0
.S'true,enableJumbotronAutoScroll : 1'
p0
.S'penned : 1'
p0
.S'syndicate : 1'
p0
.S'citySearch":"/weather/citySearch","enableInHeader":true,"enableInFooter":true,"getForecast":"/weather/getForecast","serviceCitySearchHost":"http://weather.cnn.com","serviceForecastHost":"http://weather.cnn.com","storedLocationsAmount":6};CNN.Zones : 1'
p0
.S'Bond.\\"","layout":""},{"uri":"/2015/11/01/asia/china-school-bullying/index.html","headline":"Bullying : 1'
p0
.S'with : 9'
p0
.S'chatter.","layout":""},{"uri":"/2015/10/05/middleeast/yazidi-women-suicide-in-isis-captivity/index.html","headline":"Women : 1'
p0
.S'he : 5'
p0
.S'abused : 1'
p0
.S'five\\u003c/strong>","thumbnail":"http://i2.cdn.turner.com/cnnnext/dam/assets/151117162340-french-soldier-fighter-jet-small-11.jpg","duration":"","description":"","layout":""},{"uri":"/2015/11/17/world/paris-attacks/index.html","headline":"\\u003cstrong>AT : 1'
p0
.S'SearchInternational : 1'
p0
.S'true,enableRefreshTimers : 1'
p0
.S'romantic : 1'
p0
.S'We\xe2\x80\x99ve : 1'
p0
.S'altered.\\"","layout":""},{"uri":"/2015/10/29/fashion/jessica-minh-anh-runway-stunts/index.html","headline":"Model : 1'
p0
.S'harrowing : 2'
p0
.S'amznkey":"3288 : 1'
p0
.S'yakuza : 1'
p0
.S'up : 4'
p0
.S'in","persistentCtaText":"Experience"},"temppass":"TempPass_CNN10min"},"mutedPlayer":{"startTime":0,"stopInterval":30,"stopTime":0,"timeZone":"GMT"},"embedLinks":{"clipboardOperationsSWF":"http://i.cdn.turner.com/cnn/video/assets/CNNVideoClipboardCopy.swf","buttonImage":"{cdnassetpath}/{build}/assets/embed_video_button.png","imageButtonXOffset":0,"imageButtonYOffset":3,"embedLinkPattern":"\\u003ciframe : 1'
p0
.S'origins : 2'
p0
.S'instructions.\\u003c/a>"},"goSmartLink":"http://cnn.it/go","persistentCta":{"cobrandingText":"In : 2'
p0
.S'ISIS?","thumbnail":"http://i2.cdn.turner.com/cnnnext/dam/assets/150318083603-cnnee-pkg-brown-pamela-jihadi-john-profile-00002425-small-11.jpg","duration":"","description":"","layout":""},{"uri":"/2015/11/13/opinions/odom-diversity-still-lacking-conferences/index.html","headline":"Trudeau\'s : 1'
p0
.S'how : 4'
p0
.S"vrqIsOnHP]);_vrq.push(['track : 1"
p0
.S'retreats","thumbnail":"http://i2.cdn.turner.com/cnnnext/dam/assets/151112120511-malaysia-rainforest-resorts-datai-langkawi-small-11.jpg","duration":"","description":"","layout":"","iconType":"gallery"},{"uri":"/2015/11/12/opinions/gallery/snow-leopards/index.html","headline":"Gloomy : 1'
p0
.S'setRefDom(win : 1'
p0
.S'Hebdo : 2'
p0
.S'ua : 1'
p0
.S'agree : 2'
p0
.S'catch : 2'
p0
.S'gone : 1'
p0
.S'target=\\"_blank\\">poverty : 1'
p0
.S'true,enableZoneOutbrain : 1'
p0
.S'u003c/strong>States : 1'
p0
.S"Kong's : 2"
p0
.S'exhausted : 1'
p0
.S'describe : 1'
p0
.S'moved : 2'
p0
.S'BACKLATEST : 1'
p0
.S'an : 4'
p0
.S'as : 12'
p0
.S'at : 10'
p0
.S'frameborder=\'0\'>\\u003c/iframe>"},"network":"cnn"};CNN.WeatherConfig : 1'
p0
.S'true;s.src : 1'
p0
.S'work : 1'
p0
.S'Homepage : 1'
p0
.S'us : 2'
p0
.S'no : 4'
p0
.S'TV : 8'
p0
.S'deadly : 1'
p0
.S'HIV-positive : 1'
p0
.S'clings : 1'
p0
.S'href=\\"/privacy\\">Privacy : 1'
p0
.S'preventing : 1'
p0
.S'book : 1'
p0
.S'5 : 1'
p0
.S'ledge : 1'
p0
.S'you : 6'
p0
.S'registryURL : 1'
p0
.S'10 : 1'
p0
.S'briefly : 1'
p0
.S'usHelpTranscriptsLicense : 1'
p0
.S'la : 1'
p0
.S'obsessed : 1'
p0
.S'treasure","thumbnail":"http://i2.cdn.turner.com/cnnnext/dam/assets/151112131810-03-grand-canyon-tanner-small-11.jpg","duration":"","description":"The : 1'
p0
.S'dies : 1'
p0
.S'target=\\"_blank\\">troubleshooting : 2'
p0
.S'football : 2'
p0
.S'update : 1'
p0
.S'minute","thumbnail":"http://i2.cdn.turner.com/cnnnext/dam/assets/151116191441-paris-crime-scene-small-11.jpg","duration":"01:09","description":"A : 1'
p0
.S'false,enableShareButtons : 1'
p0
.S'important : 1'
p0
.S'48804 : 1'
p0
.S'accent?","thumbnail":"http://i2.cdn.turner.com/cnnnext/dam/assets/151022104016-spectre-film-still-small-11.jpg","duration":"","description":"\\"The : 1'
p0
.S'Earth : 1'
p0
.S'CNN : 14'
p0
.S'href=\\"http://edition.cnn.com/2014/11/19/world/asia/human-face-jewels : 2'
p0
.S'aware : 1'
p0
.S'mastermind : 1'
p0
.S'diamonds : 4'
p0
.S'died : 1'
p0
.S'connotations : 1'
p0
.S'BACKFIGHTING : 1'
p0
.S'remote : 1'
p0
.S'longer : 2'
p0
.S'Consent","messageText":"We : 1'
p0
.S'came : 1'
p0
.S'autoScrollEnabled":false,"autoScrollInterval":8000,"pauseAutoscrollWhenInvisible":true,"pauseVideoWhenInvisible":true,"responsiveContainerConstraints":{"mobile":480,"tablet":800,"desktop":2500},"scrollPausesJumbotronInterval":5000};CNN.LazyLoad : 1'
p0
.S'runway","thumbnail":"http://i2.cdn.turner.com/cnnnext/dam/assets/151029130211-jessica-minh-anh-tease-small-11.jpg","duration":"","description":"For : 1'
p0
.S'reported.","layout":""},{"uri":"/2015/11/17/entertainment/paul-walker-death-lawsuit/index.html","headline":"Paul : 1'
p0
.S'fact : 1'
p0
.S'time : 1'
p0
.S'fresh : 2'
p0
.S'overturned : 1'
p0
.S'raidsSURVIVOR : 1'
p0
.S'original : 1'
p0
.