S"marketInfo.clipped_taxonomy':'_HomePage : 1"
p0
.S'all : 3'
p0
.S'gs : 1'
p0
.S'if(html : 2'
p0
.S'rating : 1'
p0
.S"marketInfo.staticDirectory':'miamiherald : 1"
p0
.S"amznads.getAds('3108 : 1"
p0
.S'Edison : 1'
p0
.S'document).on("pageContentReady : 1'
p0
.S'FrontEndConfig : 2'
p0
.S'toggle : 1'
p0
.S'Trending : 3'
p0
.S'Legals : 1'
p0
.S'Toledo : 2'
p0
.S'go : 1'
p0
.S'1200px)","small":"(min-width : 1'
p0
.S'publicationUrl : 1'
p0
.S'Downtown : 1'
p0
.S'Someone : 1'
p0
.S'Business : 9'
p0
.S'dneal@miamiherald.com : 1'
p0
.S'acctId:"D3FD89 : 1'
p0
.S'160 : 1'
p0
.S'show : 1'
p0
.S"zvents.domain':'http://events.miami.com : 1"
p0
.S'send : 2'
p0
.S'0 : 2'
p0
.S'program : 3'
p0
.S'Balancing : 1'
p0
.S'Indulge : 1'
p0
.S'Nov : 12'
p0
.S'must : 2'
p0
.S'Tourism : 1'
p0
.S'Day : 1'
p0
.S"jQuery('section.main-content').addClass('section').removeClass('main-content : 1"
p0
.S'Reader : 2'
p0
.S'Jim : 3'
p0
.S'Prize : 1'
p0
.S'Escambray : 2'
p0
.S'11:37 : 2'
p0
.S'992px : 1'
p0
.S'end : 1'
p0
.S"mi.pageInfo.getConf('accuweather.dev : 1"
p0
.S'iconPath : 1'
p0
.S'locationString : 1'
p0
.S'Military : 1'
p0
.S'Voices : 1'
p0
.S'a").attr("href : 1'
p0
.S'Ana : 1'
p0
.S'tickets : 1'
p0
.S"ga('create : 1"
p0
.S"this).find('img').length : 1"
p0
.S'prize : 1'
p0
.S"a').each(function : 1"
p0
.S'Global : 1'
p0
.S'companies : 1'
p0
.S'300x250 : 1'
p0
.S'try : 3'
p0
.S'Taste : 1'
p0
.S'session : 2'
p0
.S"week's : 1"
p0
.S'team : 3'
p0
.S'small : 1'
p0
.S'settings : 4'
p0
.S'marketInfo.CarsSEO : 1'
p0
.S"marketInfo.allow_nativo':'true : 1"
p0
.S"marketInfo.pagelevel_informational':'false : 1"
p0
.S"marketInfo.product':'site : 1"
p0
.S'gallery : 7'
p0
.S"this).removeClass('open : 1"
p0
.S"location.hostname.split('.')[1 : 1"
p0
.S'maneuver : 3'
p0
.S"marketInfo.careerbuilder.lr':'CBCB_MH : 1"
p0
.S"marketInfo.careerbuilder.mxjobsrchcriteria_rawwords':'outside+sales : 1"
p0
.S'Cuban : 4'
p0
.S"initWallpaperAd(['#div-gpt-ad-11 : 1"
p0
.S'Sales : 1'
p0
.S'Stay : 1'
p0
.S'State : 1'
p0
.S'trim($(this).html : 2'
p0
.S'video : 1'
p0
.S'11:42 : 1'
p0
.S'Dwyane : 1'
p0
.S'Sections : 7'
p0
.S'McClatchy : 1'
p0
.S'circulars : 2'
p0
.S'what : 1'
p0
.S'Delivery : 4'
p0
.S'hide : 1'
p0
.S'Subscriptions : 4'
p0
.S'Automotive : 1'
p0
.S'cooking : 1'
p0
.S'navbar-nav : 1'
p0
.S'find : 2'
p0
.S'HERALD : 1'
p0
.S'Comics : 1'
p0
.S'Heat : 11'
p0
.S'google_ad_type : 1'
p0
.S'scientists : 1'
p0
.S'new : 4'
p0
.S'Southwest : 1'
p0
.S'boost : 1'
p0
.S'Former : 1'
p0
.S'Fort : 1'
p0
.S'singleblogs.init : 1'
p0
.S'slidesToShow : 4'
p0
.S'Charlie : 1'
p0
.S'gathered : 1'
p0
.S'men : 2'
p0
.S'google_ad_width : 1'
p0
.S'Santiago : 1'
p0
.S'answers : 3'
p0
.S'Krischer : 1'
p0
.S'Herald : 7'
p0
.S'Campbell : 1'
p0
.S'beacon : 2'
p0
.S'Contact : 3'
p0
.S'Green : 2'
p0
.S'Us : 8'
p0
.S'max-width : 2'
p0
.S'buy : 1'
p0
.S'strong : 2'
p0
.S'change : 1'
p0
.S'digest : 1'
p0
.S'google_color_border : 1'
p0
.S'search : 2'
p0
.S'kids : 1'
p0
.S'talent : 2'
p0
.S'Deal : 1'
p0
.S'Garage : 1'
p0
.S'Pines : 1'
p0
.S'Tuesday : 6'
p0
.S'Insight : 2'
p0
.S'Client-side : 1'
p0
.S'experience : 1'
p0
.S'JW : 1'
p0
.S'trial : 1'
p0
.S'airport : 1'
p0
.S'published : 1'
p0
.S'Home : 4'
p0
.S'Flashback : 1'
p0
.S'Technology : 1'
p0
.S'inspires : 1'
p0
.S'mistats.pagelevel="Home : 1'
p0
.S'mi_Ads.env.create : 1'
p0
.S"this).attr('href',$(this).attr('href').split('//')[1 : 2"
p0
.S'NCAA : 2'
p0
.S'guacamole : 3'
p0
.S'google_hints : 1'
p0
.S'Privacy : 2'
p0
.S'Morgan\xe2\x80\x99s : 4'
p0
.S'win : 2'
p0
.S'Top : 1'
p0
.S'offset : 4'
p0
.S'When : 1'
p0
.S'Fabiola : 1'
p0
.S'brought : 2'
p0
.S'initialize : 1'
p0
.S'startup : 1'
p0
.S'Book : 1'
p0
.S'Miami-Dade : 9'
p0
.S'Meet : 1'
p0
.S'Notices : 4'
p0
.S"a').attr('data-target : 1"
p0
.S'should : 1'
p0
.S'FL : 1'
p0
.S'market : 1'
p0
.S'Europe : 1'
p0
.S'from : 4'
p0
.S"this).find('.summary : 1"
p0
.S'to : 22'
p0
.S"marketInfo.county':'Miami-Dade : 1"
p0
.S'Must-try : 3'
p0
.S'two : 1'
p0
.S'by : 3'
p0
.S'1,000 : 1'
p0
.S"top-galleries').removeClass('hidden').slick : 1"
p0
.S'sectionCode : 2'
p0
.S'taken : 1'
p0
.S'33172 : 1'
p0
.S'cover-upIts : 1'
p0
.S'start : 1'
p0
.S'Merchandise : 1'
p0
.S'Dolphins : 2'
p0
.S'300 : 2'
p0
.S"facebook.app.id':'133847067760 : 1"
p0
.S'entry.title : 2'
p0
.S'fellow : 1'
p0
.S'Christine : 1'
p0
.S'lsquo;Yanqui : 2'
p0
.S'Wednesday : 1'
p0
.S'if(needs_pp){jQuery.getScript : 2'
p0
.S'Americas : 1'
p0
.S'Banking : 1'
p0
.S'So : 1'
p0
.S'Dolen : 1'
p0
.S'Editorial : 2'
p0
.S"visible-lg>.digest>.row>div:not(:has(*))').remove : 1"
p0
.S'91 : 1'
p0
.S'section[role="main : 1'
p0
.S'Feeds : 1'
p0
.S'paragraphs : 4'
p0
.S'datelineStr : 4'
p0
.S'Latest : 4'
p0
.S"marketInfo.careerbuilder.s_rawwords':'CustomField3:MIAMITJ : 1"
p0
.S'Videos : 1'
p0
.S'google_language : 1'
p0
.S'this : 3'
p0
.S'setup : 1'
p0
.S'work : 2'
p0
.S'SW : 4'
p0
.S'991px : 1'
p0
.S'old-homepage : 1'
p0
.S'Aventura : 2'
p0
.S'paragraph : 2'
p0
.S'Video : 6'
p0
.S'can : 2'
p0
.S'iframe : 1'
p0
.S'Photo : 7'
p0
.S'Our : 1'
p0
.S'Panthers : 3'
p0
.S'Your : 5'
p0
.S'Ground : 5'
p0
.S'control : 3'
p0
.S'Palette : 1'
p0
.S'links : 1'
p0
.S'do : 1'
p0
.S'pie : 3'
p0
.S'Media : 3'
p0
.S'each(FrontEndConfig : 1'
p0
.S'high : 3'
p0
.S'Conference : 1'
p0
.S'way : 1'
p0
.S'want : 1'
p0
.S'Digital : 5'
p0
.S'Policy : 4'
p0
.S'991 : 1'
p0
.S'keep : 2'
p0
.S"classads.homefinderUrl':'http://www.homefinder.com/FL/Miami : 1"
p0
.S'1199 : 1'
p0
.S'needs : 1'
p0
.S'5.3 : 1'
p0
.S'Editorials : 1'
p0
.S'Mustard : 1'
p0
.S'provide : 1'
p0
.S'Windows : 1'
p0
.S'Drink : 3'
p0
.S'inaugural : 1'
p0
.S'utf8 : 1'
p0
.S'en : 1'
p0
.S'1 : 10'
p0
.S'Jordan : 1'
p0
.S'http://a.postrelease.com/serve/load.js : 1'
p0
.S'interview : 2'
p0
.S'media.jwplayer.hls.enabled":"true","media.jwplayer.key":"EI/fcdftP3JlLdXGtZy16IJoXDVlSPg3Gdi+3w : 1'
p0
.S"marketInfo.city':'Miami : 1"
p0
.S'mast_options : 2'
p0
.S"accuweather.dev':'false : 1"
p0
.S'A : 2'
p0
.S'navbar-nav").height : 1'
p0
.S'Sunny : 1'
p0
.S'max : 2'
p0
.S'Performing : 1'
p0
.S'offset-1).remove : 2'
p0
.S'Medley : 1'
p0
.S'Pitts : 1'
p0
.S'windowWidth : 2'
p0
.S'50 : 1'
p0
.S'Biscayne : 2'
p0
.S'1199px)","large":"(min-width : 1'
p0
.S'Terms : 2'
p0
.S"marketInfo.careerbuilder.s_freshness':'30 : 1"
p0
.S'law : 2'
p0
.S'View : 5'
p0
.S'a : 26'
p0
.S'All : 3'
p0
.S'trackerConfig : 4'
p0
.S'Letters : 1'
p0
.S'third : 1'
p0
.S"trackerConfig.hasOwnProperty('name : 1"
p0
.S'life : 2'
p0
.S'sectionCode.push(mi.pageInfo.getConf("gemini.sectionCode : 1'
p0
.S"Stadium's : 1"
p0
.S'Marlins : 1'
p0
.S"jQuery('#footer : 2"
p0
.S'switch : 1'
p0
.S'Weather : 2'
p0
.S'i[r].q=i[r].q||[]).push(arguments)},i[r].l=1*new : 1'
p0
.S'Democrats : 3'
p0
.S"zvents.max_sponsored':'2 : 1"
p0
.S'Slick : 1'
p0
.S'Politics : 3'
p0
.S'Speak : 1'
p0
.S'playing : 1'
p0
.S'fillers : 1'
p0
.S'RSS : 1'
p0
.S'Catholic : 1'
p0
.S'Horse : 1'
p0
.S"marketInfo.sourcelevel':'ecefrontpage : 1"
p0
.S'played : 1'
p0
.S"don't : 1"
p0
.S'jQuery(function : 1'
p0
.S'Breaking : 1'
p0
.S'Smith : 1'
p0
.S'executionIt : 2'
p0
.S'min-height : 1'
p0
.S'jQuery.getScript(wishabiScriptUrl : 1'
p0
.S'cook : 1'
p0
.S'P&eacute;pin&rsquo;s : 1'
p0
.S'through : 1'
p0
.S'nbsp : 2'
p0
.S'committee : 2'
p0
.S'Church\xe2\x80\x99s : 1'
p0
.S'responsive : 2'
p0
.S'1-800-843-4372 : 1'
p0
.S'Hiaasen : 1'
p0
.S'olive.localBrand : 1'
p0
.S'Sheen : 1'
p0
.S'wufoo.formID : 1'
p0
.S'document.createElement("script : 1'
p0
.S'640 : 1'
p0
.S'20 : 1'
p0
.S'Cops : 1'
p0
.S'personal : 1'
p0
.S'Revolution&rsquo;s : 2'
p0
.S'fix : 1'
p0
.S'Report : 2'
p0
.S'WFClientTypeDef : 1'
p0
.S'winning : 1'
p0
.S"publication.domain':'MiamiHerald.com : 1"
p0
.S'window).load(function : 1'
p0
.S'html : 4'
p0
.S'variableWidth : 1'
p0
.S'2015 : 12'
p0
.S"marketInfo.code':'MIA : 1"
p0
.S'jQuery(".mi-weather-alert").populateWeatherAlert("description : 1'
p0
.S'Restaurants : 1'
p0
.S'might : 1'
p0
.S'Make : 2'
p0
.S'flex : 1'
p0
.S'Commenting : 2'
p0
.S'return : 2'
p0
.S'Cable : 1'
p0
.S'mi.pageInfo.getConf("gemini.sectionCode : 1'
p0
.S'Miami : 35'
p0
.S'recipes : 3'
p0
.S'Challenge : 1'
p0
.S'Bay : 3'
p0
.S'Youth : 1'
p0
.S"pp={client:{config:{'zone':z,'mode':'universal','debug':0,'precheck':function(){return : 1"
p0
.S'Stand : 5'
p0
.S'Galleries : 1'
p0
.S'Nightlife : 1'
p0
.S'they : 1'
p0
.S'Social : 3'
p0
.S'schools : 1'
p0
.S'Tower : 1'
p0
.S'group : 1'
p0
.S'catch(e : 2'
p0
.S'down : 3'
p0
.S'Coconut : 2'
p0
.S'google_ad_height : 1'
p0
.S'ms-viewport{width:auto!important : 1'
p0
.S'Pro : 1'
p0
.S'countries : 1'
p0
.S'arrows : 1'
p0
.S'needs_pp : 3'
p0
.S'Reddit : 1'
p0
.S'Four : 1'
p0
.S'Comandante&rsquo : 2'
p0
.S"Medina's : 1"
p0
.S'extraSmall":"(max-width : 1'
p0
.S'Panel : 2'
p0
.S"accuweather.apiKey':'2ce96fe9da724185a27db1e6a3ecf580 : 1"
p0
.S'Sat : 2'
p0
.S'subset : 2'
p0
.S'el : 1'
p0
.S"marketInfo.state':'Florida : 1"
p0
.S'script.src : 2'
p0
.S'From : 1'
p0
.S'Stadium : 1'
p0
.S'google.load("feeds : 1'
p0
.S'globe : 1'
p0
.S'video-link : 1'
p0
.S'grpId1:"mia : 1'
p0
.S'Liberty : 2'
p0
.S'Sports : 10'
p0
.S"legacy.affiliateId':'mi000150 : 1"
p0
.S'content-body-27205183").children().slice(0 : 1'
p0
.S'Live : 3'
p0
.S'Derek : 1'
p0
.S'Peru : 1'
p0
.S'year : 1'
p0
.S'Print : 1'
p0
.S'80 : 1'
p0
.S'Save : 1'
p0
.S'document.getElementsByTagName("head")[0].appendChild(msViewportStyle : 1'
p0
.S'Hollywood : 1'
p0
.S'More : 11'
p0
.S'large : 1'
p0
.S'WPBT : 2'
p0
.S"mi.pageInfo.setConf('gemini.sectionCode : 1"
p0
.S"financialContent.account':'miamiherald : 1"
p0
.S'toplines : 1'
p0
.S'since : 1'
p0
.S'Lakes : 1'
p0
.S'rolls : 2'
p0
.S'William : 2'
p0
.S"function(i,s,o,g,r,a,m){i['GoogleAnalyticsObject']=r;i[r]=i[r]||function : 1"
p0
.S'Connected : 1'
p0
.S'child : 1'
p0
.S'Key : 3'
p0
.S'HomePage : 1'
p0
.S'Vacation : 2'
p0
.S'heading : 2'
p0
.S'console.log("lazy : 1'
p0
.S'Hold : 2'
p0
.S'slidesToScroll : 4'
p0
.S'http://api.circularhub.com/4646/45eb20750a20084f/circularhub_module.js : 1'
p0
.S'Promotions : 1'
p0
.S'Ad":[[300,250],[300,600]],"Welcome : 1'
p0
.S'wasn\xe2\x80\x99t : 1'
p0
.S"marketInfo.JobsQSCTY':'Miami : 1"
p0
.S'earns : 1'
p0
.S'state : 2'
p0
.S'Grove : 2'
p0
.S'lights : 1'
p0
.S'University : 3'
p0
.S'pageview : 1'
p0
.S'attending : 1'
p0
.S'Cartoons : 1'
p0
.S'members : 1'
p0
.S'lsquo;Spotlight&rsquo : 1'
p0
.S'Opinion : 3'
p0
.S'beginning : 3'
p0
.S'12:15 : 1'
p0
.S'11:59 : 3'
p0
.S'unique : 1'
p0
.S'Clinton : 2'
p0
.S'language : 3'
p0
.S'People : 3'
p0
.S"Florida's : 2"
p0
.S'Boston : 2'
p0
.S'National : 3'
p0
.S'I-95 : 2'
p0
.S'days : 1'
p0
.S'Sign : 2'
p0
.S'google_alternate_color : 1'
p0
.S'abuse : 1'
p0
.S'Select : 1'
p0
.S'mi.pageInfo.setConf : 1'
p0
.S'singleblogs : 1'
p0
.S'Doral : 2'
p0
.S'mistats.cmsid="Homepage : 1'
p0
.S'recruiter : 2'
p0
.S'David : 1'
p0
.S'first : 5'
p0
.S'feed : 1'
p0
.S'Obituary : 1'
p0
.S'200 : 1'
p0
.S'already : 1'
p0
.S'Copyright : 2'
p0
.S'jQuery("#masthead-container : 1'
p0
.S'Commercial : 3'
p0
.S'There : 1'
p0
.S'navbar-header : 2'
p0
.S'one : 6'
p0
.S'done : 1'
p0
.S'Ethan : 5'
p0
.S'catch(v_e : 1'
p0
.S'vote : 2'
p0
.S"accuweather.partnerCode':'MCCLATCHY : 1"
p0
.S'Local : 4'
p0
.S"marketInfo.taxonomy':'_HomePage : 1"
p0
.S'leaders : 1'
p0
.S'legislative : 2'
p0
.S'story : 2'
p0
.S'Abravanel : 1'
p0
.S'North : 2'
p0
.S'For : 2'
p0
.S'Monday : 3'
p0
.S'script : 2'
p0
.S'IE : 1'
p0
.S'interviews : 2'
p0
.S'1080 : 1'
p0
.S'pgId:"section-front : 1'
p0
.S'elnuevoherald : 1'
p0
.S'Police-involved : 4'
p0
.S'2 : 3'
p0
.S'steals : 1'
p0
.S'carousel : 1'
p0
.S'NewsMedia : 2'
p0
.S'Haiti : 1'
p0
.S'Sun : 3'
p0
.S'nursery : 1'
p0
.S'Ad":[[300,250],[300,600],[550,480],[600,500]],"300x250":[300,250],"300x100":[300,100],"300x75":[300,75],"300x50":[300,50],"240x400":[240,400],"234x60":[234,60],"216x36":[216,36],"180x150":[180,150],"168x28":[168,28],"160x600":[160,600],"160x90":[160,90],"146x60":[146,60],"120x600":[120,600],"120x240":[120,240],"120x20":[120,20],"Rising : 1'
p0
.S"navbar-collapse-1').on('shown.bs.collapse : 1"
p0
.S'that : 2'
p0
.S'post-practice : 2'
p0
.S'Apps : 3'
p0
.S'Wynwood : 1'
p0
.S'http://www.miamiherald.com : 2'
p0
.S'This : 1'
p0
.S'trackerSend : 2'
p0
.S'rejected : 2'
p0
.S'southbound : 1'
p0
.S'Device : 1'
p0
.S'visible-lg : 1'
p0
.S'if(max : 2'
p0
.S'off : 2'
p0
.S'feed.setResultFormat(google.feeds.Feed.MIXED_FORMAT : 1'
p0
.S'representing : 1'
p0
.S'than : 1'
p0
.S'undefined : 2'
p0
.S'10 : 2'
p0
.S'065186da-7560-445b-a0d3-f45d72018e70 : 1'
p0
.S'15 : 4'
p0
.S'14 : 2'
p0
.S'17 : 3'
p0
.S'16 : 3'
p0
.S'Brickell : 1'
p0
.S'summary : 1'
p0
.S'media.jwplayer.script.location":"http://static.mcclatchyinteractive.com/escenic/jwplayer-6.12/jwplayer.js","media.jwplayer.hls.mimeTypes":"vnd.apple.mpegURL,application/x-mpegURL","audioPlayer":"mediaelement","media.jwplayer.sharing.enabled":"true","videoPlayer":"jwplayer","media.jwplayer.options.primary":"html5","media.jwplayer.ga.enabled":"true : 1'
p0
.S'Edition : 3'
p0
.S'if(offset : 4'
p0
.S'Moonlighting : 1'
p0
.S'jQuery(document).ready(function : 1'
p0
.S"classads.apartmentsUrl':'http://www.apartments.com/Florida/Miami : 1"
p0
.S'msViewportStyle : 1'
p0
.S'a={ready:p,bind:p};w.$=w.jQuery=function(f){if(f===d||f===u){return : 1'
p0
.S"marketInfo.Jobslr':'CBCB_MH : 1"
p0
.S'Advertise : 2'
p0
.S'NW : 1'
p0
.S'subcommittee : 2'
p0
.S'and : 19'
p0
.S'Information : 3'
p0
.S"zvents.swhen':'next : 1"
p0
.S'false : 7'
p0
.S'footer-columns : 1'
p0
.S'won&rsquo;t : 1'
p0
.S'a}else{p(f)}}})(window,document : 1'
p0
.S'strengthen : 2'
p0
.S'lsquo;revealing : 1'
p0
.S'Submit : 1'
p0
.S"marketInfo.JobsQSSTS':'FL,US : 1"
p0
.S'Other : 1'
p0
.S'p.m : 2'
p0
.S'Community : 4'
p0
.S'academics : 1'
p0
.S'need : 1'
p0
.S'Announcements : 1'
p0
.S'dropdowns : 1'
p0
.S'Soccer : 1'
p0
.S'Venezuela : 1'
p0
.S'their : 1'
p0
.S'https://s.yimg.com/av/gemini/ga/syndication.js : 1'
p0
.S'Player : 1'
p0
.S'Food : 3'
p0
.S'After : 1'
p0
.S'able : 1'
p0
.S'm=s.getElementsByTagName(o)[0];a.async=1;a.src=g;m.parentNode.insertBefore(a,m : 1'
p0
.S'Kit : 3'
p0
.S'Nuevo : 1'
p0
.S'also : 1'
p0
.S'320 : 1'
p0
.S"marketInfo.location':'Miami : 1"
p0
.S'Ticket : 1'
p0
.S'Inventors : 2'
p0
.S'text : 1'
p0
.S'300x250_pas_abgnc : 1'
p0
.S"marketInfo.followLinks':'0 : 1"
p0
.S'2016 : 4'
p0
.S'exactly : 1'
p0
.S'investigations : 1'
p0
.S'NMB : 1'
p0
.S'Blogs : 8'
p0
.S'who : 5'
p0
.S'11/22 : 1'
p0
.S'windowSize : 2'
p0
.S'feed.load(function(result : 1'
p0
.S'breakpoint : 5'
p0
.S'Depth : 2'
p0
.S'Columnist : 1'
p0
.S'Games : 1'
p0
.S'plan : 2'
p0
.S'Cutler : 2'
p0
.S'device : 3'
p0
.S'The : 3'
p0
.S'mistats.pagename="Home : 1'
p0
.S'fair : 1'
p0
.S'Jacques : 1'
p0
.S'Deals : 1'
p0
.S'Google : 5'
p0
.S'Taking : 2'
p0
.S'000000 : 3'
p0
.S"a').attr({'data-toggle':'collapse','data-parent':'#accordion'}).each(function : 1"
p0
.S"Green's : 1"
p0
.S'Regular : 1'
p0
.S'Morin : 3'
p0
.S'face : 1'
p0
.S'High : 1'
p0
.S'Subscribe : 2'
p0
.S'flex-ad").has("iframe").height : 1'
p0
.S'google_safe : 1'
p0
.S'Film : 2'
p0
.S'movie : 1'
p0
.S'Springs : 2'
p0
.S'If : 1'
p0
.S'Carolina : 1'
p0
.S'width : 1'
p0
.S'768 : 1'
p0
.S'Garvin : 1'
p0
.S'Globe\xe2\x80\x99s : 1'
p0
.S'11:27 : 3'
p0
.S'1140 : 1'
p0
.S'chowder : 3'
p0
.S'shot : 1'
p0
.S'google_color_bg : 1'
p0
.S'Living : 4'
p0
.S'Paris : 2'
p0
.S'Barry : 1'
p0
.S'detection : 1'
p0
.S'Error : 2'
p0
.S'BB&amp;T : 1'
p0
.S"mi.pageInfo.getConf('accuweather.locationString : 1"
p0
.S'0000ff : 2'
p0
.S'Grimm : 1'
p0
.S'Gate : 1'
p0
.S'typeof(FrontEndConfig : 1'
p0
.S'Fatal : 1'
p0
.S'Public : 6'
p0
.S'ground : 2'
p0
.S'We : 2'
p0
.S'setTimeout(function : 1'
p0
.S'just : 1'
p0
.S'title : 1'
p0
.S'true : 9'
p0
.S'dateline : 2'
p0
.S'Visual : 1'
p0
.S'Jr : 1'
p0
.S"wishabi.bodyId':'861 : 1"
p0
.S'here : 1'
p0
.S'only : 3'
p0
.S'singleblogs.set_ids("1,24,25,28,19,6,7,8,9,10,11,12,13,14,15,16,56 : 1'
p0
.S'Traffic : 1'
p0
.S'Mon : 1'
p0
.S'Services : 1'
p0
.S"marketInfo.siteId':'56 : 1"
p0
.S'Asian : 3'
p0
.S'hope : 2'
p0
.S'Pembroke : 1'
p0
.S'Luther : 1'
p0
.S"form-control').attr('placeholder','B\xc3\xbasqueda : 1"
p0
.S"marketInfo.classads.apartmentsUrl':'http://www.apartments.com/Florida/Miami : 1"
p0
.S'get : 1'
p0
.S'Movers : 1'
p0
.S'http://api.circularhub.com/4580/45eb20750a20084f/circularhub_module.js : 1'
p0
.S'Thanksgiving : 2'
p0
.S'Fighting : 1'
p0
.S'Magazine : 2'
p0
.S'Code : 1'
p0
.S'10:47 : 1'
p0
.S'Fitness : 1'
p0
.S'during : 2'
p0
.S'THE : 1'
p0
.S'content-body-27205177").children().slice(0 : 1'
p0
.S'him : 2'
p0
.S'nearly : 1'
p0
.S'zvents.swhat : 1'
p0
.S'think : 1'
p0
.S'Instagram : 1'
p0
.S'hiring : 1'
p0
.S'ca-lmc-mcclatchy : 1'
p0
.S'childhood : 2'
p0
.S'rapper : 1'
p0
.S'9 : 4'
p0
.S'remove : 2'
p0
.S'morning : 1'
p0
.S"navbar-toggle').prepend('Secciones : 1"
p0
.S'Miami.com : 4'
p0
.S'Tyler : 1'
p0
.S'cartoons : 1'
p0
.S'shots : 1'
p0
.S'Corner : 2'
p0
.S'Education : 3'
p0
.S'automatic : 1'
p0
.S'restaurants : 4'
p0
.S'document).ready(function : 4'
p0
.S'Skolnick : 5'
p0
.S'Palmetto : 1'
p0
.S'questions : 3'
p0
.S'Veciana-Suarez : 1'
p0
.S'Removing : 2'
p0
.S'configured : 1'
p0
.S"Mini/i.test(navigator.userAgent)){z='rGMluC7SdIqUB_L_UXz5o2'};var : 1"
p0
.S'announcement&rsquo : 1'
p0
.S'maximum : 2'
p0
.S'google_encoding : 1'
p0
.S'see : 1'
p0
.S'are : 3'
p0
.S"document.createElement('script : 1"
p0
.S'Winslow : 1'
p0
.S"publication.mediadomain':'media.miamiherald.com : 1"
p0
.S"marketInfo.logoAltText':'Miami : 1"
p0
.S'Shopping : 2'
p0
.S'msViewportStyle.appendChild : 1'
p0
.S'UA-3858463-1 : 1'
p0
.S'ways : 1'
p0
.S'Auto : 1'
p0
.S'label : 1'
p0
.S'3 : 4'
p0
.S'Investigative : 1'
p0
.S'Lauderdale : 1'
p0
.S'Freedom : 1'
p0
.S'it : 2'
p0
.S'stories : 1'
p0
.S'imageSizes : 1'
p0
.S"z='dH8ogmYVh7n4wEfMoZ1r08';if(/Android|iPhone|iPod|iPad|webOS|BlackBerry|IEMobile|Opera : 1"
p0
.S'available : 2'
p0
.S'wf : 1'
p0
.S'we : 1'
p0
.S'Classified : 2'
p0
.S'explosive : 2'
p0
.S"amznads.setTargetingForGPTAsync('amznslots : 1"
p0
.S'Johnson : 1'
p0
.S"digest-feature').each(function : 1"
p0
.S'Florida : 25'
p0
.S'mi_Ads.env.init : 1'
p0
.S'spicy : 3'
p0
.S'job : 1'
p0
.S'death : 2'
p0
.S'awards : 1'
p0
.S'Workplace : 1'
p0
.S'result.error : 1'
p0
.S'Directory : 2'
p0
.S'jQuery(window).width : 2'
p0
.S'Weird : 1'
p0
.S'cities : 1'
p0
.S'come : 1'
p0
.S'singleblogs.set_single_col(true : 1'
p0
.S"marketInfo.domain':'miamiherald : 1"
p0
.S'depicts : 1'
p0
.S'FrontEndConfig.rootURL : 1'
p0
.S'last : 1'
p0
.S'google.setOnLoadCallback(initialize : 1'
p0
.S'Cruises : 1'
p0
.S'accordion : 1'
p0
.S'priests : 1'
p0
.S'fourth-quarter : 1'
p0
.S'Lambiet : 1'
p0
.S'centerMode : 1'
p0
.S'Design : 2'
p0
.S'Nite\xe2\x80\x9d : 1'
p0
.S'Conversations : 1'
p0
.S'Classifieds : 2'
p0
.S'Employment : 1'
p0
.S'admission : 1'
p0
.S'load : 1'
p0
.S"marketInfo.market_identifier':'MIA.site_miamiherald : 1"
p0
.S'Friday : 1'
p0
.S'cancer : 1'
p0
.S"zvents.max_events':'4 : 1"
p0
.S'had : 3'
p0
.S'Travel : 1'
p0
.S'en-us : 1'
p0
.S'community : 1'
p0
.S'height : 2'
p0
.S'Rentals : 1'
p0
.S"marketInfo.application_version':'1.0.69-4ddf001 : 1"
p0
.S'Music : 1'
p0
.S'Board : 1'
p0
.S'shutdown : 1'
p0
.S'Flex":[[960,30],[970,30],[970,90],[970,250]],"960x30":[960,30],"728x90":[728,90],"600x250":[600,250],"500x300":[500,300],"468x60":[468,60],"336x280":[336,280],"320x450":[320,450],"320x50":[320,50],"300x600":[300,600],"Flex : 1'
p0
.S'loaded : 1'
p0
.S'Hallendale : 1'
p0
.S'Pinecrest : 2'
p0
.S'boat : 1'
p0
.S"read-more:only-child').parent().parent().parent().hide : 1"
p0
.S'better : 1'
p0
.S'Rewards : 2'
p0
.S'Work/Life : 1'
p0
.S'Get : 1'
p0
.S'Cars : 1'
p0
.S'px : 1'
p0
.S'three : 1'
p0
.S"pressPlus.zone':'dH8ogmYVh7n4wEfMoZ1r08 : 1"
p0
.S'team-worst : 1'
p0
.S'Puzzles : 1'
p0
.S'Phone : 1'
p0
.S'Hillary : 2'
p0
.S'Obituaries : 4'
p0
.S'Plan : 1'
p0
.S'Carl : 1'
p0
.S'Communities : 1'
p0
.S"findnsave.tracking':'findnsave : 1"
p0
.S'07:56 : 2'
p0
.S'hardly : 1'
p0
.S'empty : 2'
p0
.S'Care : 1'
p0
.S'dots : 1'
p0
.S'locationKey : 1'
p0
.S'Date().getTime : 1'
p0
.S'Center : 1'
p0
.S'400 : 1'
p0
.S'Elections : 2'
p0
.S'else : 4'
p0
.S'Date();a=s.createElement(o : 1'
p0
.S'McRoberts : 1'
p0
.S'Opa-locka : 1'
p0
.S'World : 2'
p0
.S"key.indexOf('media.jwplayer.options : 1"
p0
.S"mi.pageInfo.getConf('accuweather.locationKey : 1"
p0
.S'Starting : 1'
p0
.S'Havana : 1'
p0
.S'present : 1'
p0
.S'Reprint : 1'
p0
.S'main : 1'
p0
.S'960 : 1'
p0
.S"marketInfo.webmaster_email':'webmaster@miamiherald.com : 1"
p0
.S'MHBlogs("#miamiherald_blogs_singleblogs : 1'
p0
.S'mistats.channel="Homepage : 1'
p0
.S'polls : 1'
p0
.S'Bush&rsquo;s : 1'
p0
.S'Goodman : 1'
p0
.S'value : 1'
p0
.S'General : 1'
p0
.S'will : 3'
p0
.S'createWallpaperAd : 1'
p0
.S"marketInfo.region':'South : 1"
p0
.S'document).on("fragmentReady : 1'
p0
.S'College : 2'
p0
.S'typeof : 2'
p0
.S'editorial : 1'
p0
.S'newspaper : 1'
p0
.S'Follow : 1'
p0
.S'document.createTextNode : 1'
p0
.S'Issues : 2'
p0
.S'engineers : 1'
p0
.S'Album : 2'
p0
.S'City : 1'
p0
.S"Wade's : 1"
p0
.S"marketInfo.shortURL':'front : 1"
p0
.S'then : 1'
p0
.S'Menu : 2'
p0
.S'is : 10'
p0
.S'Tennis : 1'
p0
.S'secondary").responsiveHeights(null,992 : 2'
p0
.S'Ideas : 1'
p0
.S'wife : 2'
p0
.S"p').css({'display':'none : 1"
p0
.S'p(x,y){if(x=="ready"){w.bindReadyQ.push(y);}else{w.readyQ.push(x);}};var : 1'
p0
.S'hover : 1'
p0
.S'properties : 2'
p0
.S'in : 33'
p0
.S'Eagles : 1'
p0
.S'content-body-27205177").children().slice(max).remove : 1'
p0
.S'eReaders : 3'
p0
.S'Beach : 3'
p0
.S'trusted : 1'
p0
.S'if : 17'
p0
.S'jQuery("#main-nav : 2'
p0
.S'Bosh&rsquo;s : 1'
p0
.S'null : 1'
p0
.S'shuts : 1'
p0
.S'Garden : 1'
p0
.S'767px)","medium":"(min-width : 1'
p0
.S'make : 1'
p0
.S'MountainsThe : 2'
p0
.S'same : 1'
p0
.S'tells : 2'
p0
.S'Mobile : 9'
p0
.S'google_ad_client : 1'
p0
.S'Plane : 2'
p0
.S'google_color_text : 1'
p0
.S"window,document,'script','//www.google-analytics.com/analytics.js','ga : 1"
p0
.S'hidePhotoTitle : 2'
p0
.S'MiamiHerald.com : 1'
p0
.S'document : 1'
p0
.S'bid : 2'
p0
.S'one-hour : 2'
p0
.S'systemic : 1'
p0
.S"classads.carsUrl':'http://www.cars.com/?aff=miami : 1"
p0
.S'About : 3'
p0
.S'finish : 1'
p0
.S'content-body-27205183 : 1'
p0
.S'Institute : 2'
p0
.S'jQuery("#video-full : 3'
p0
.S'Coral : 2'
p0
.S'reporting : 3'
p0
.S'minus-22 : 1'
p0
.S'isDevEnv : 1'
p0
.S'Vigilant : 1'
p0
.S'Movies : 1'
p0
.S'Greg : 3'
p0
.S'infinite : 1'
p0
.S'Lightning : 2'
p0
.S"marketInfo.pagelevel':'homepage : 1"
p0
.S'Order : 1'
p0
.S'District : 2'
p0
.S'google_color_url : 1'
p0
.S'Rene : 1'
p0
.S"this).addClass('open : 1"
p0
.S'Apartments : 1'
p0
.S'i : 2'
p0
.S'changes : 3'
p0
.S'google_color_line : 1'
p0
.S'your : 1'
p0
.S"men's : 2"
p0
.S'Isles : 1'
p0
.S'sports : 1'
p0
.S'Club : 1'
p0
.S'Horoscopes : 1'
p0
.S'google_ad_channel : 1'
p0
.S'In : 4'
p0
.S'Justise : 1'
p0
.S'hearts : 1'
p0
.S'the : 45'
p0
.S'800 : 1'
p0
.S'panel-body.top-story : 1'
p0
.S'latest : 1'
p0
.S'Gables : 2'
p0
.S'wrate:1 : 1'
p0
.S'spurred : 1'
p0
.S'ffffff : 2'
p0
.S'Service : 5'
p0
.S'grpId2:window.location.hostname : 1'
p0
.S'being : 1'
p0
.S'half : 1'
p0
.S'Lesley : 1'
p0
.S'767 : 4'
p0
.S'Crime : 1'
p0
.S"portable-menu').slick : 1"
p0
.S'marketInfo.JobsSEO : 1'
p0
.S'kill : 3'
p0
.S'Pets : 2'
p0
.S'using : 2'
p0
.S'subnav : 1'
p0
.S'speed : 1'
p0
.S'nav_height : 2'
p0
.S'apple : 3'
p0
.S'Wireless : 1'
p0
.S'loading : 1'
p0
.S'Jobs : 1'
p0
.S'ads : 1'
p0
.S'Gay : 2'
p0
.S'Photos : 1'
p0
.S'Advice : 1'
p0
.S'12:03 : 4'
p0
.S'YouTube : 1'
p0
.S'Leonard : 1'
p0
.S'bench : 1'
p0
.S'Shores : 1'
p0
.S'add : 1'
p0
.S'other : 1'
p0
.S'Star":[500,300]},"floorboard":{"None":[],"285x70":[285,70]},"wallpaper":{"None":[],"1600x600":[1600,600 : 1'
p0
.S'4 : 1'
p0
.S'Fred : 1'
p0
.S'prison : 2'
p0
.S'lsquo;Today&rsquo : 1'
p0
.S'News : 12'
p0
.S'Broward : 3'
p0
.S'Guant\xc3\xa1namo : 1'
p0
.S'evalAdSize : 1'
p0
.S'scheduled : 2'
p0
.S'Flagami : 1'
p0
.S'Op-Ed : 1'
p0
.S'around : 1'
p0
.S"jQuery('.dropdown : 2"
p0
.S'breaks : 2'
p0
.S'Oppenheimer : 1'
p0
.S'early : 3'
p0
.S'google_color_link : 1'
p0
.S'game : 1'
p0
.S'clam : 3'
p0
.S'That\xe2\x80\x99s : 1'
p0
.S'press : 1'
p0
.S'amp : 16'
p0
.S'Embed : 1'
p0
.S"legacy.siteName':'herald : 1"
p0
.S'string : 1'
p0
.S'Wine : 1'
p0
.S'Jeb : 1'
p0
.S'Fashion : 1'
p0
.S'Art : 2'
p0
.S'Show : 2'
p0
.S'follows : 2'
p0
.S'deadlocked : 2'
p0
.S'Newsletters : 3'
p0
.S'51 : 1'
p0
.S'Contemporary : 2'
p0
.S'Hialeah : 2'
p0
.S'ignore : 2'
p0
.S"marketInfo.name':'Miami : 1"
p0
.S'BioSciences : 1'
p0
.S'Columnists : 5'
p0
.S'Health : 2'
p0
.S'window).width : 2'
p0
.S'refugees : 2'
p0
.S'page : 1'
p0
.S'8 : 1'
p0
.S'soccer : 2'
p0
.S'Little : 1'
p0
.S'deal : 1'
p0
.S'Entertainment : 6'
p0
.S'Gerald : 3'
p0
.S'West : 3'
p0
.S"marketInfo.CarsAFF':'herald : 1"
p0
.S'feed.setNumEntries(2 : 1'
p0
.S'dead : 5'
p0
.S'script.async : 2'
p0
.S'Editor : 1'
p0
.S'ajaxed : 1'
p0
.S'images : 1'
p0
.S'International : 2'
p0
.S'FIU : 3'
p0
.S'5 : 1'
p0
.S'250 : 2'
p0
.S'Channel : 2'
p0
.S'content-body-27205177 : 1'
p0
.S'projection : 1'
p0
.S'for : 13'
p0
.S'Cuba : 2'
p0
.S"marketInfo.phone':'1 : 1"
p0
.S'http://launch.newsinc.com/js/embed.js : 2'
p0
.S'Killer : 1'
p0
.S"row:not(:has(*))').remove : 1"
p0
.S'miamicomfeed").html(content : 1'
p0
.S'Events : 1'
p0
.S'students : 1'
p0
.S'Dave : 1'
p0
.S'Cote : 3'
p0
.S'Facebook : 4'
p0
.S'Columns : 1'
p0
.S'function(key : 1'
p0
.S'Chris : 1'
p0
.S'11/17/15 : 2'
p0
.S'content : 15'
p0
.S'top-photos-carousel").hide : 1'
p0
.S'be : 3'
p0
.S'School : 1'
p0
.S'object : 1'
p0
.S'run : 1'
p0
.S'scientific : 1'
p0
.S"marketInfo.state_abbreviation':'FL : 1"
p0
.S"marketInfo.careerbuilder.dmc_id':'1048 : 1"
p0
.S'sixth : 1'
p0
.S'google_adtest : 1'
p0
.S'night : 1'
p0
.S'Neal : 1'
p0
.S'Up : 1'
p0
.S'Davie : 1'
p0
.S'ArchdioceseThe : 1'
p0
.S'mistats.taxonomy="_HomePage : 1'
p0
.S'leadership : 1'
p0
.S'Place : 4'
p0
.S'defensive : 1'
p0
.S'Outdoors : 1'
p0
.S'Auctions/Sales : 1'
p0
.S'includes : 2'
p0
.S'finicky : 1'
p0
.S'Russia : 2'
p0
.S'after : 2'
p0
.S'slidesToScroll:1 : 1'
p0
.S'Kendall : 3'
p0
.S'on : 13'
p0
.S'about : 1'
p0
.S'jQuery(".miWeatherCurrent").populateCurrentWeather(mast_options : 1'
p0
.S'560 : 1'
p0
.S'would : 1'
p0
.S'Fair : 1'
p0
.S'Glenn : 1'
p0
.S'of : 25'
p0
.S'slidesToScroll:3 : 1'
p0
.S'Find : 1'
p0
.S'UM : 4'
p0
.S'Printing : 2'
p0
.S'Americans : 1'
p0
.S'Calendar : 1'
p0
.S'Advertising : 2'
p0
.S'Story : 1'
p0
.S'lands : 1'
p0
.S'google_ad_format : 1'
p0
.S'Find&amp;Save : 2'
p0
.S'CappSci : 2'
p0
.S'travelers : 1'
p0
.S'into : 2'
p0
.S'Alerts : 3'
p0
.S'Bowl : 1'
p0
.S'Arts : 2'
p0
.S'Midtown : 1'
p0
.S'Environment : 1'
p0
.S'guard : 3'
p0
.S'homemade : 2'
p0
.S'dropdown-menu").css : 1'
p0
.S'gomez : 1'
p0
.S'Racing : 2'
p0
.S'grpId3:"ece_frontpage : 1'
p0
.S'Store : 1'
p0
.S'Network : 2'
p0
.S"accuweather.locationKey':'347936 : 1"
p0
.S'768px : 1'
p0
.S'Finance : 1'
p0
.S'wishabiScriptUrl : 3'
p0
.S'Keys : 4'
p0
.S'Documentary : 2'
p0
.S'support : 3'
p0
.S'Pinterest : 1'
p0
.S'legislation : 2'
p0
.S'approved : 1'
p0
.S'stuck : 1'
p0
.S'fought : 2'
p0
.S'died : 2'
p0
.S'Letter : 1'
p0
.S'function(w,d,u){w.readyQ=[];w.bindReadyQ=[];function : 1'
p0
.S'var : 33'
p0
.S'was : 3'
p0
.S'opens : 1'
p0
.S'Homestead : 2'
p0
.S'function : 12'
p0
.S'Cooks : 2'
p0
.S'successfully : 3'
p0
.S'Patti : 1'
p0
.S'enough : 1'
p0
.S'Dade : 5'
p0
.S'great : 2'
p0
.S'J : 6'
p0
.S'document.body.appendChild(script : 1'
p0
.S'PM : 5'
p0
.S'but : 3'
p0
.S'3179 : 1'
p0
.S'\xe2\x80\x9cNerd : 1'
p0
.S'11:53 : 2'
p0
.S"jQuery('#main-nav-container : 2"
p0
.S'content-body-27205183").children().slice(max).remove : 1'
p0
.S'Small : 1'
p0
.S'role : 2'
p0
.S'with : 7'
p0
.S'google.feeds.Feed("http://www.miami.com/rss/nodequeue/1 : 1'
p0
.S'300x600 : 1'
p0
.S'Golf : 1'
p0
.S'Rodriguez : 1'
p0
.S'House : 5'
p0
.S'Twitter : 3'
p0
.S'marketInfo.adsizes\':{"outofpage":{},"default":{"None":[],"970x90":[970,90],"Billboard : 1'
p0
.S'up : 2'
p0
.S'Levin : 1'
p0
.S'County : 5'
p0
.S'Books : 1'
p0
.S'mistats : 2'
p0
.S'critical : 1'
p0
.S'720 : 1'
p0
.S'cc7441.bcp : 1'
p0
.S'Ave : 1'
p0
.S'marketInfo.viewsizes\':[{"Large":[1200,600]},{"Medium":[992,300]},{"Small":[768,300]},{"Extra-Small":[0,0 : 1'
p0
.S'Front : 1'
p0
.S'similar : 1'
p0
.S'tricks : 1'
p0
.S'Special : 1'
p0
.S'trackerConfig.name : 2'
p0
.S'Jose : 1'
p0
.S'ad : 3'
p0
.S'USA : 1'
p0
.S"document.getElementsByTagName('head')[0].appendChild(script : 1"
p0
.S'Personal : 1'
p0
.S"marketInfo.JobsSiteID':'cbcb_mh : 1"
p0
.S'singleblogs.set_qty(3 : 1'
p0
.S'tournament : 2'
p0
.S'Josh : 1'
p0
.S'1200 : 2'
p0
.S'LinkedIn : 1'
p0
.S'an : 6'
p0
.S'Blog : 1'
p0
.S'To : 1'
p0
.S'as : 3'
p0
.S'ga(trackerSend : 1'
p0
.S'at : 10'
p0
.S'chat : 3'
p0
.S'home : 2'
p0
.S'shooting : 6'
p0
.S'Homepage : 1'
p0
.S'processed : 1'
p0
.S'Real : 5'
p0
.S'again : 1'
p0
.S'options : 1'
p0
.S'grpId:"Escenic : 1'
p0
.S'raquo : 1'
p0
.S'TV : 1'
p0
.S'Andres : 1'
p0
.S'detail : 1'
p0
.S'document.createElement("style : 1'
p0
.S'Helping : 2'
p0
.S'field : 2'
p0
.S"mi.pageInfo.getConf('marketInfo.allow_nativo : 1"
p0
.S"wishabi.navId':'1058 : 1"
p0
.S'nav : 3'
p0
.S'Syrian : 2'
p0
.S"marketInfo.addcities':'South : 1"
p0
.S'test : 1'
p0
.S'you : 1'
p0
.S'out : 3'
p0
.S'stalwart : 1'
p0
.S'Man : 1'
p0
.S'Customer : 3'
p0
.S'if($("#top-galleries").height : 1'
p0
.S'showDateline : 2'
p0
.S'dropdown").hover : 1'
p0
.S'Recipes : 1'
p0
.S'become : 1'
p0
.S'AM : 14'
p0
.S'slidesToShow:3 : 1'
p0
.S'police-involved : 1'
p0
.S"jQuery('meta[name=keywords]').attr('content : 1"
p0
.S"marketInfo.networkid':'7675 : 1"
p0
.S'Cindy : 1'
p0
.S'Act : 1'
p0
.S'navigator.userAgent.match(/IEMobile\\/10\\.0 : 1'
p0
.S"wf.resource.static.rootUrl':'http://www.miamiherald.com/static : 1"
p0
.S'slidesToShow:1 : 1'
p0
.S"navbar-toggle').prepend('Full : 1"
p0
.S'Gardens : 1'
p0
.S'South : 13'
p0
.S'480 : 1'
p0
.S'billion : 1'
p0
.S'p").filter : 2'
p0
.S'\xe2\x80\x94 : 1'
p0
.S'Estate : 5'
p0
.S"marketInfo.allow_ads':'true : 1"
p0
.S"marketInfo.street_address':'3511 : 1"
p0
.S'Site : 3'
p0
.S'jQuery(window).resize(function : 1'
p0
.S'2000 : 1'
p0
.S"marketInfo.careerbuilder.dmc_code':'mia : 1"
p0
.S'week : 1'
p0
.S'Inbox : 1'
p0
.S'diagnosis : 1'
p0
.S'time : 1'
p0
.S'static/images/widgets/weather/2020 : 1'
p0
.S'Contests : 1'
p0
.S'oral : 1'
p0
.S'prizes : 1'
p0
.